	.arch armv8-a+nosimd
	.file	"rv1126b-secure-otp.c"
	.text
.Ltext0:
	.cfi_sections	.debug_frame
	.section	.text.rv1126b_spl_rockchip_otp_stop,"ax",@progbits
	.align	2
	.type	rv1126b_spl_rockchip_otp_stop, %function
rv1126b_spl_rockchip_otp_stop:
.LFB273:
	.file 1 "./drivers/misc/rv1126b-secure-otp.c"
	.loc 1 80 0
	.cfi_startproc
.LVL0:
.LBB22:
	.loc 1 81 0
#APP
// 81 "./drivers/misc/rv1126b-secure-otp.c" 1
	dmb sy
// 0 "" 2
#NO_APP
	mov	w1, 131072
.LVL1:
	str	w1, [x0]
	ret
.LBE22:
	.cfi_endproc
.LFE273:
	.size	rv1126b_spl_rockchip_otp_stop, .-rv1126b_spl_rockchip_otp_stop
	.section	.text.rv1126b_spl_rockchip_otp_start,"ax",@progbits
	.align	2
	.type	rv1126b_spl_rockchip_otp_start, %function
rv1126b_spl_rockchip_otp_start:
.LFB272:
	.loc 1 69 0
	.cfi_startproc
.LVL2:
	stp	x29, x30, [sp, -32]!
	.cfi_def_cfa_offset 32
	.cfi_offset 29, -32
	.cfi_offset 30, -24
	add	x29, sp, 0
	.cfi_def_cfa_register 29
	str	x19, [sp, 16]
	.cfi_offset 19, -16
	.loc 1 69 0
	mov	x19, x1
.LBB23:
	.loc 1 70 0
#APP
// 70 "./drivers/misc/rv1126b-secure-otp.c" 1
	dmb sy
// 0 "" 2
#NO_APP
	mov	w1, 131074
.LVL3:
	str	w1, [x0]
.LVL4:
.LBE23:
.LBB24:
	.loc 1 71 0
#APP
// 71 "./drivers/misc/rv1126b-secure-otp.c" 1
	dmb sy
// 0 "" 2
#NO_APP
	mov	w0, 134219776
.LVL5:
	str	w0, [x19]
.LBE24:
	.loc 1 72 0
	mov	x0, 2
	bl	udelay
.LVL6:
.LBB25:
	.loc 1 73 0
#APP
// 73 "./drivers/misc/rv1126b-secure-otp.c" 1
	dmb sy
// 0 "" 2
#NO_APP
	mov	w0, 134217728
	str	w0, [x19]
.LBE25:
	.loc 1 75 0
	ldr	x19, [sp, 16]
.LVL7:
	.loc 1 74 0
	mov	x0, 1
	.loc 1 75 0
	ldp	x29, x30, [sp], 32
	.cfi_restore 30
	.cfi_restore 29
	.cfi_restore 19
	.cfi_def_cfa 31, 0
	.loc 1 74 0
	b	udelay
.LVL8:
	.cfi_endproc
.LFE272:
	.size	rv1126b_spl_rockchip_otp_start, .-rv1126b_spl_rockchip_otp_start
	.section	.text.secure_otp_write,"ax",@progbits
	.align	2
	.type	secure_otp_write, %function
secure_otp_write:
.LFB284:
	.loc 1 694 0
	.cfi_startproc
.LVL9:
	stp	x29, x30, [sp, -48]!
	.cfi_def_cfa_offset 48
	.cfi_offset 29, -48
	.cfi_offset 30, -40
	add	x29, sp, 0
	.cfi_def_cfa_register 29
	stp	x19, x20, [sp, 16]
	.cfi_offset 19, -32
	.cfi_offset 20, -24
	mov	x19, x0
	stp	x21, x22, [sp, 32]
	.cfi_offset 21, -16
	.cfi_offset 22, -8
	.loc 1 694 0
	mov	w20, w1
	mov	x21, x2
	mov	w22, w3
	.loc 1 695 0
	bl	dev_get_driver_data
.LVL10:
	.loc 1 697 0
	ldr	x4, [x0, 8]
	mov	w3, w22
	mov	x2, x21
	mov	w1, w20
	mov	x0, x19
.LVL11:
	.loc 1 698 0
	ldp	x21, x22, [sp, 32]
.LVL12:
	ldp	x19, x20, [sp, 16]
.LVL13:
	ldp	x29, x30, [sp], 48
	.cfi_restore 30
	.cfi_restore 29
	.cfi_restore 21
	.cfi_restore 22
	.cfi_restore 19
	.cfi_restore 20
	.cfi_def_cfa 31, 0
	.loc 1 697 0
	br	x4
.LVL14:
	.cfi_endproc
.LFE284:
	.size	secure_otp_write, .-secure_otp_write
	.section	.text.secure_otp_read,"ax",@progbits
	.align	2
	.type	secure_otp_read, %function
secure_otp_read:
.LFB283:
	.loc 1 686 0
	.cfi_startproc
.LVL15:
	stp	x29, x30, [sp, -48]!
	.cfi_def_cfa_offset 48
	.cfi_offset 29, -48
	.cfi_offset 30, -40
	add	x29, sp, 0
	.cfi_def_cfa_register 29
	stp	x19, x20, [sp, 16]
	.cfi_offset 19, -32
	.cfi_offset 20, -24
	mov	x19, x0
	stp	x21, x22, [sp, 32]
	.cfi_offset 21, -16
	.cfi_offset 22, -8
	.loc 1 686 0
	mov	w20, w1
	mov	x21, x2
	mov	w22, w3
	.loc 1 687 0
	bl	dev_get_driver_data
.LVL16:
	.loc 1 689 0
	ldr	x4, [x0]
	mov	w3, w22
	mov	x2, x21
	mov	w1, w20
	mov	x0, x19
.LVL17:
	.loc 1 690 0
	ldp	x21, x22, [sp, 32]
.LVL18:
	ldp	x19, x20, [sp, 16]
.LVL19:
	ldp	x29, x30, [sp], 48
	.cfi_restore 30
	.cfi_restore 29
	.cfi_restore 21
	.cfi_restore 22
	.cfi_restore 19
	.cfi_restore 20
	.cfi_def_cfa 31, 0
	.loc 1 689 0
	br	x4
.LVL20:
	.cfi_endproc
.LFE283:
	.size	secure_otp_read, .-secure_otp_read
	.section	.text.rockchip_secure_otp_ofdata_to_platdata,"ax",@progbits
	.align	2
	.type	rockchip_secure_otp_ofdata_to_platdata, %function
rockchip_secure_otp_ofdata_to_platdata:
.LFB289:
	.loc 1 779 0
	.cfi_startproc
.LVL21:
	stp	x29, x30, [sp, -32]!
	.cfi_def_cfa_offset 32
	.cfi_offset 29, -32
	.cfi_offset 30, -24
	add	x29, sp, 0
	.cfi_def_cfa_register 29
	stp	x19, x20, [sp, 16]
	.cfi_offset 19, -16
	.cfi_offset 20, -8
	.loc 1 779 0
	mov	x20, x0
	.loc 1 780 0
	bl	dev_get_platdata
.LVL22:
	mov	x19, x0
.LVL23:
	.loc 1 782 0
	mov	x0, x20
.LVL24:
	bl	dev_read_addr_ptr
.LVL25:
	.loc 1 783 0
	mov	w2, 0
	adrp	x1, .LC0
	.loc 1 782 0
	str	x0, [x19]
	.loc 1 783 0
	add	x1, x1, :lo12:.LC0
	mov	x0, x20
	bl	dev_read_u32_default
.LVL26:
	.loc 1 784 0
	uxtw	x0, w0
	str	x0, [x19, 8]
	.loc 1 785 0
	mov	w2, 0
	mov	x0, x20
	adrp	x1, .LC1
	add	x1, x1, :lo12:.LC1
	bl	dev_read_u32_default
.LVL27:
	.loc 1 786 0
	uxtw	x0, w0
	str	x0, [x19, 16]
	.loc 1 787 0
	mov	w2, 0
	mov	x0, x20
	adrp	x1, .LC2
	add	x1, x1, :lo12:.LC2
	bl	dev_read_u32_default
.LVL28:
	.loc 1 788 0
	uxtw	x0, w0
	str	x0, [x19, 24]
	.loc 1 789 0
	mov	w2, 0
	mov	x0, x20
	adrp	x1, .LC3
	add	x1, x1, :lo12:.LC3
	bl	dev_read_u32_default
.LVL29:
	.loc 1 790 0
	uxtw	x0, w0
	str	x0, [x19, 32]
	.loc 1 793 0
	mov	w0, 0
	ldp	x19, x20, [sp, 16]
.LVL30:
	ldp	x29, x30, [sp], 32
	.cfi_restore 30
	.cfi_restore 29
	.cfi_restore 19
	.cfi_restore 20
	.cfi_def_cfa 31, 0
	ret
	.cfi_endproc
.LFE289:
	.size	rockchip_secure_otp_ofdata_to_platdata, .-rockchip_secure_otp_ofdata_to_platdata
	.section	.text.rockchip_secure_otp_check_flag.isra.0,"ax",@progbits
	.align	2
	.type	rockchip_secure_otp_check_flag.isra.0, %function
rockchip_secure_otp_check_flag.isra.0:
.LFB290:
	.loc 1 128 0
	.cfi_startproc
	stp	x29, x30, [sp, -32]!
	.cfi_def_cfa_offset 32
	.cfi_offset 29, -32
	.cfi_offset 30, -24
	add	x29, sp, 0
	.cfi_def_cfa_register 29
	stp	x19, x20, [sp, 16]
	.cfi_offset 19, -16
	.cfi_offset 20, -8
	.loc 1 128 0
	mov	w19, 34465
	mov	x20, x0
	movk	w19, 0x1, lsl 16
.L12:
.LVL31:
.LBB26:
	.loc 1 135 0
	ldr	x0, [x20]
	ldr	w1, [x0, 44]
.LVL32:
#APP
// 135 "./drivers/misc/rv1126b-secure-otp.c" 1
	dmb sy
// 0 "" 2
.LVL33:
#NO_APP
.LBE26:
	.loc 1 136 0
	and	w0, w1, 16
	tbz	x1, 4, .L10
	.loc 1 139 0
	subs	w19, w19, #1
.LVL34:
	beq	.L13
.LVL35:
	.loc 1 145 0
	mov	x0, 1
	bl	udelay
.LVL36:
	b	.L12
.LVL37:
.L13:
	.loc 1 140 0
	mov	w0, -1
.LVL38:
.L10:
	.loc 1 149 0
	ldp	x19, x20, [sp, 16]
	ldp	x29, x30, [sp], 32
	.cfi_restore 30
	.cfi_restore 29
	.cfi_restore 19
	.cfi_restore 20
	.cfi_def_cfa 31, 0
	ret
	.cfi_endproc
.LFE290:
	.size	rockchip_secure_otp_check_flag.isra.0, .-rockchip_secure_otp_check_flag.isra.0
	.section	.text.rockchip_secure_otp_wait_flag.isra.1,"ax",@progbits
	.align	2
	.type	rockchip_secure_otp_wait_flag.isra.1, %function
rockchip_secure_otp_wait_flag.isra.1:
.LFB291:
	.loc 1 105 0
	.cfi_startproc
	stp	x29, x30, [sp, -32]!
	.cfi_def_cfa_offset 32
	.cfi_offset 29, -32
	.cfi_offset 30, -24
	add	x29, sp, 0
	.cfi_def_cfa_register 29
	stp	x19, x20, [sp, 16]
	.cfi_offset 19, -16
	.cfi_offset 20, -8
	.loc 1 105 0
	mov	x20, x0
	mov	w19, 20001
.L20:
.LVL39:
.LBB27:
	.loc 1 112 0
	ldr	x0, [x20]
	ldr	w0, [x0, 44]
.LVL40:
#APP
// 112 "./drivers/misc/rv1126b-secure-otp.c" 1
	dmb sy
// 0 "" 2
.LVL41:
#NO_APP
.LBE27:
	.loc 1 113 0
	tbnz	x0, 4, .L21
	.loc 1 116 0
	subs	w19, w19, #1
.LVL42:
	beq	.L22
	.loc 1 121 0
	mov	x0, 1
.LVL43:
	bl	udelay
.LVL44:
	b	.L20
.LVL45:
.L21:
	.loc 1 109 0
	mov	w0, 0
.LVL46:
.L18:
	.loc 1 126 0
	ldp	x19, x20, [sp, 16]
	ldp	x29, x30, [sp], 32
	.cfi_remember_state
	.cfi_restore 30
	.cfi_restore 29
	.cfi_restore 19
	.cfi_restore 20
	.cfi_def_cfa 31, 0
	ret
.LVL47:
.L22:
	.cfi_restore_state
	.loc 1 117 0
	mov	w0, -1
.LVL48:
	b	.L18
	.cfi_endproc
.LFE291:
	.size	rockchip_secure_otp_wait_flag.isra.1, .-rockchip_secure_otp_wait_flag.isra.1
	.section	.text.rockchip_secure_otp_wait_status.isra.2,"ax",@progbits
	.align	2
	.type	rockchip_secure_otp_wait_status.isra.2, %function
rockchip_secure_otp_wait_status.isra.2:
.LFB292:
	.loc 1 85 0
	.cfi_startproc
.LVL49:
	stp	x29, x30, [sp, -48]!
	.cfi_def_cfa_offset 48
	.cfi_offset 29, -48
	.cfi_offset 30, -40
	add	x29, sp, 0
	.cfi_def_cfa_register 29
	stp	x19, x20, [sp, 16]
	.cfi_offset 19, -32
	.cfi_offset 20, -24
	mov	w19, w1
	str	x21, [sp, 32]
	.cfi_offset 21, -16
	.loc 1 85 0
	mov	x21, x0
	mov	w20, 10000
.LVL50:
.L25:
.LBB34:
	.loc 1 90 0
	ldr	x0, [x21]
	ldr	w0, [x0, 772]
.LVL51:
#APP
// 90 "./drivers/misc/rv1126b-secure-otp.c" 1
	dmb sy
// 0 "" 2
#NO_APP
.LBE34:
	tst	w0, w19
	beq	.L27
.LBB35:
	.loc 1 100 0
	orr	w19, w19, -65536
.LVL52:
#APP
// 100 "./drivers/misc/rv1126b-secure-otp.c" 1
	dmb sy
// 0 "" 2
#NO_APP
	ldr	x0, [x21]
.LVL53:
	str	w19, [x0, 772]
.LBE35:
	.loc 1 102 0
	mov	w0, 0
	b	.L24
.LVL54:
.L27:
	.loc 1 91 0
	mov	x0, 1
.LVL55:
	bl	udelay
.LVL56:
	.loc 1 93 0
	subs	w20, w20, #1
.LVL57:
	bne	.L25
.LVL58:
.LBB36:
.LBB37:
	.loc 1 94 0
	adrp	x1, .LANCHOR0
	adrp	x0, .LC4
	add	x1, x1, :lo12:.LANCHOR0
	add	x0, x0, :lo12:.LC4
	bl	printf
.LVL59:
	mov	w0, -110
.LVL60:
.L24:
.LBE37:
.LBE36:
	.loc 1 103 0
	ldp	x19, x20, [sp, 16]
.LVL61:
	ldr	x21, [sp, 32]
	ldp	x29, x30, [sp], 48
	.cfi_restore 30
	.cfi_restore 29
	.cfi_restore 21
	.cfi_restore 19
	.cfi_restore 20
	.cfi_def_cfa 31, 0
	ret
	.cfi_endproc
.LFE292:
	.size	rockchip_secure_otp_wait_status.isra.2, .-rockchip_secure_otp_wait_status.isra.2
	.section	.text.rv1126b_secure_otp_write_2_bytes_noecc,"ax",@progbits
	.align	2
	.type	rv1126b_secure_otp_write_2_bytes_noecc, %function
rv1126b_secure_otp_write_2_bytes_noecc:
.LFB279:
	.loc 1 251 0
	.cfi_startproc
.LVL62:
	stp	x29, x30, [sp, -96]!
	.cfi_def_cfa_offset 96
	.cfi_offset 29, -96
	.cfi_offset 30, -88
	add	x29, sp, 0
	.cfi_def_cfa_register 29
	stp	x21, x22, [sp, 32]
	.cfi_offset 21, -64
	.cfi_offset 22, -56
	mov	w22, w2
	stp	x19, x20, [sp, 16]
	and	w21, w3, 65535
	stp	x27, x28, [sp, 80]
	.cfi_offset 19, -80
	.cfi_offset 20, -72
	.cfi_offset 27, -16
	.cfi_offset 28, -8
	.loc 1 255 0
	asr	w20, w22, 1
	.loc 1 251 0
	stp	x23, x24, [sp, 48]
	mov	x28, x1
	stp	x25, x26, [sp, 64]
	.cfi_offset 23, -48
	.cfi_offset 24, -40
	.cfi_offset 25, -32
	.cfi_offset 26, -24
	.loc 1 253 0
	bl	dev_get_driver_data
.LVL63:
	.loc 1 256 0
	cmp	w20, 415
	bgt	.L38
	mov	x25, x0
	.loc 1 260 0
	cmp	w20, 170
	sub	w0, w20, #16
.LVL64:
	ccmp	w0, 1, 0, ne
	bls	.L32
	.loc 1 260 0 is_stmt 0 discriminator 1
	sub	w0, w20, #192
	cmp	w0, 63
	bls	.L32
	.loc 1 261 0 is_stmt 1 discriminator 2
	sub	w0, w20, #392
	.loc 1 260 0 discriminator 2
	cmp	w0, 7
	bls	.L32
	.loc 1 264 0
	adrp	x0, .LC5
	and	w1, w22, -2
	add	x0, x0, :lo12:.LC5
	bl	printf
.LVL65:
.L38:
	.loc 1 257 0
	mov	w0, -1
.LVL66:
.L30:
	.loc 1 458 0
	ldp	x19, x20, [sp, 16]
.LVL67:
	ldp	x21, x22, [sp, 32]
	ldp	x23, x24, [sp, 48]
	ldp	x25, x26, [sp, 64]
	ldp	x27, x28, [sp, 80]
.LVL68:
	ldp	x29, x30, [sp], 96
	.cfi_remember_state
	.cfi_restore 30
	.cfi_restore 29
	.cfi_restore 27
	.cfi_restore 28
	.cfi_restore 25
	.cfi_restore 26
	.cfi_restore 23
	.cfi_restore 24
	.cfi_restore 21
	.cfi_restore 22
	.cfi_restore 19
	.cfi_restore 20
	.cfi_def_cfa 31, 0
	ret
.LVL69:
.L32:
	.cfi_restore_state
	.loc 1 268 0
	cbz	w21, .L39
	.loc 1 271 0
	ldr	x5, [x25, 16]
	mov	w3, w20
	ldp	x0, x2, [x28, 8]
	ldr	x1, [x28, 24]
	blr	x5
.LVL70:
.LBB38:
	.loc 1 274 0
#APP
// 274 "./drivers/misc/rv1126b-secure-otp.c" 1
	dmb sy
// 0 "" 2
#NO_APP
	ldr	x0, [x28]
	mov	w1, 65536
	str	w1, [x0, 256]
.LVL71:
.LBE38:
.LBB39:
	.loc 1 275 0
#APP
// 275 "./drivers/misc/rv1126b-secure-otp.c" 1
	dmb sy
// 0 "" 2
#NO_APP
	ldr	x0, [x28]
	mov	w1, 262148
	str	w1, [x0, 32]
.LVL72:
.LBE39:
.LBB40:
	.loc 1 276 0
#APP
// 276 "./drivers/misc/rv1126b-secure-otp.c" 1
	dmb sy
// 0 "" 2
#NO_APP
	ldr	x0, [x28]
	mov	w1, -65536
	str	w1, [x0, 40]
.LVL73:
.LBE40:
.LBB41:
	.loc 1 277 0
#APP
// 277 "./drivers/misc/rv1126b-secure-otp.c" 1
	dmb sy
// 0 "" 2
#NO_APP
	ldr	x0, [x28]
	mov	w1, 512
	movk	w1, 0xff00, lsl 16
	str	w1, [x0, 32]
.LVL74:
.LBE41:
.LBB42:
	.loc 1 278 0
#APP
// 278 "./drivers/misc/rv1126b-secure-otp.c" 1
	dmb sy
// 0 "" 2
#NO_APP
	ldr	x0, [x28]
	mov	w24, -65534
	str	w24, [x0, 36]
.LVL75:
.LBE42:
.LBB43:
	.loc 1 279 0
#APP
// 279 "./drivers/misc/rv1126b-secure-otp.c" 1
	dmb sy
// 0 "" 2
#NO_APP
	ldr	x0, [x28]
	mov	w1, 252
	str	w1, [x0, 4096]
.LVL76:
.LBE43:
.LBB44:
	.loc 1 280 0
#APP
// 280 "./drivers/misc/rv1126b-secure-otp.c" 1
	dmb sy
// 0 "" 2
#NO_APP
	ldr	x0, [x28]
	str	wzr, [x0, 4100]
.LVL77:
.LBE44:
.LBB45:
	.loc 1 281 0
#APP
// 281 "./drivers/misc/rv1126b-secure-otp.c" 1
	dmb sy
// 0 "" 2
#NO_APP
	ldr	x0, [x28]
	str	wzr, [x0, 4104]
.LVL78:
.LBE45:
.LBB46:
	.loc 1 282 0
#APP
// 282 "./drivers/misc/rv1126b-secure-otp.c" 1
	dmb sy
// 0 "" 2
#NO_APP
	ldr	x0, [x28]
	mov	w19, 65537
.LBE46:
	.loc 1 283 0
	mov	w1, 2
.LBB47:
	.loc 1 282 0
	str	w19, [x0, 32]
.LBE47:
	.loc 1 283 0
	mov	x0, x28
	bl	rockchip_secure_otp_wait_status.isra.2
.LVL79:
	.loc 1 284 0
	tbz	w0, #31, .L33
.L35:
	.loc 1 285 0
	adrp	x1, .LANCHOR1
	adrp	x0, .LC6
.LVL80:
	add	x1, x1, :lo12:.LANCHOR1
	add	x0, x0, :lo12:.LC6
.L41:
	.loc 1 418 0
	bl	printf
.LVL81:
.L34:
	.loc 1 454 0
	ldr	x5, [x25, 24]
	mov	w3, w20
	ldp	x0, x2, [x28, 8]
	ldr	x1, [x28, 24]
	blr	x5
.LVL82:
.L39:
	.loc 1 269 0
	mov	w0, 0
	b	.L30
.LVL83:
.L33:
.LBB48:
	.loc 1 289 0
#APP
// 289 "./drivers/misc/rv1126b-secure-otp.c" 1
	dmb sy
// 0 "" 2
#NO_APP
	ldr	x0, [x28]
.LVL84:
	mov	w1, -65522
	str	w1, [x0, 36]
.LVL85:
.LBE48:
.LBB49:
	.loc 1 290 0
#APP
// 290 "./drivers/misc/rv1126b-secure-otp.c" 1
	dmb sy
// 0 "" 2
#NO_APP
	ldr	x0, [x28]
	mov	w27, 240
	str	w27, [x0, 4096]
.LVL86:
.LBE49:
.LBB50:
	.loc 1 291 0
#APP
// 291 "./drivers/misc/rv1126b-secure-otp.c" 1
	dmb sy
// 0 "" 2
#NO_APP
	ldr	x0, [x28]
	mov	w23, 1
	str	w23, [x0, 4100]
.LVL87:
.LBE50:
.LBB51:
	.loc 1 292 0
#APP
// 292 "./drivers/misc/rv1126b-secure-otp.c" 1
	dmb sy
// 0 "" 2
#NO_APP
	ldr	x0, [x28]
	mov	w26, 122
	str	w26, [x0, 4104]
.LVL88:
.LBE51:
.LBB52:
	.loc 1 293 0
#APP
// 293 "./drivers/misc/rv1126b-secure-otp.c" 1
	dmb sy
// 0 "" 2
#NO_APP
	ldr	x0, [x28]
	mov	w1, 37
	str	w1, [x0, 4108]
.LVL89:
.LBE52:
.LBB53:
	.loc 1 294 0
#APP
// 294 "./drivers/misc/rv1126b-secure-otp.c" 1
	dmb sy
// 0 "" 2
#NO_APP
	ldr	x0, [x28]
	str	wzr, [x0, 4112]
.LVL90:
.LBE53:
.LBB54:
	.loc 1 295 0
#APP
// 295 "./drivers/misc/rv1126b-secure-otp.c" 1
	dmb sy
// 0 "" 2
#NO_APP
	ldr	x0, [x28]
	str	wzr, [x0, 4116]
.LVL91:
.LBE54:
.LBB55:
	.loc 1 296 0
#APP
// 296 "./drivers/misc/rv1126b-secure-otp.c" 1
	dmb sy
// 0 "" 2
#NO_APP
	ldr	x0, [x28]
	str	wzr, [x0, 4120]
.LVL92:
.LBE55:
.LBB56:
	.loc 1 297 0
#APP
// 297 "./drivers/misc/rv1126b-secure-otp.c" 1
	dmb sy
// 0 "" 2
#NO_APP
	ldr	x0, [x28]
	mov	w1, 31
	str	w1, [x0, 4124]
.LVL93:
.LBE56:
.LBB57:
	.loc 1 298 0
#APP
// 298 "./drivers/misc/rv1126b-secure-otp.c" 1
	dmb sy
// 0 "" 2
#NO_APP
	ldr	x0, [x28]
	mov	w1, 11
	str	w1, [x0, 4128]
.LVL94:
.LBE57:
.LBB58:
	.loc 1 299 0
#APP
// 299 "./drivers/misc/rv1126b-secure-otp.c" 1
	dmb sy
// 0 "" 2
#NO_APP
	ldr	x0, [x28]
	mov	w1, 8
	str	w1, [x0, 4132]
.LVL95:
.LBE58:
.LBB59:
	.loc 1 300 0
#APP
// 300 "./drivers/misc/rv1126b-secure-otp.c" 1
	dmb sy
// 0 "" 2
#NO_APP
	ldr	x0, [x28]
	str	wzr, [x0, 4136]
.LVL96:
.LBE59:
.LBB60:
	.loc 1 301 0
#APP
// 301 "./drivers/misc/rv1126b-secure-otp.c" 1
	dmb sy
// 0 "" 2
#NO_APP
	ldr	x0, [x28]
	str	wzr, [x0, 4140]
.LVL97:
.LBE60:
.LBB61:
	.loc 1 302 0
#APP
// 302 "./drivers/misc/rv1126b-secure-otp.c" 1
	dmb sy
// 0 "" 2
#NO_APP
	ldr	x0, [x28]
	str	wzr, [x0, 4144]
.LBE61:
.LBB62:
	.loc 1 303 0
	and	w0, w20, 255
#APP
// 303 "./drivers/misc/rv1126b-secure-otp.c" 1
	dmb sy
// 0 "" 2
#NO_APP
	ldr	x1, [x28]
.LBE62:
.LBB63:
	.loc 1 304 0
	ubfx	x22, x22, 9, 8
.LVL98:
.LBE63:
.LBB64:
	.loc 1 303 0
	str	w0, [x1, 4148]
.LBE64:
.LBB65:
	.loc 1 304 0
#APP
// 304 "./drivers/misc/rv1126b-secure-otp.c" 1
	dmb sy
// 0 "" 2
#NO_APP
	ldr	x0, [x28]
	str	w22, [x0, 4152]
.LVL99:
.LBE65:
.LBB66:
	.loc 1 305 0
#APP
// 305 "./drivers/misc/rv1126b-secure-otp.c" 1
	dmb sy
// 0 "" 2
#NO_APP
	ldr	x0, [x28]
.LBE66:
	.loc 1 306 0
	mov	w1, 2
.LBB67:
	.loc 1 305 0
	str	w19, [x0, 32]
.LBE67:
	.loc 1 306 0
	mov	x0, x28
	bl	rockchip_secure_otp_wait_status.isra.2
.LVL100:
	.loc 1 307 0
	tbnz	w0, #31, .L35
.LVL101:
.LBB68:
	.loc 1 312 0
#APP
// 312 "./drivers/misc/rv1126b-secure-otp.c" 1
	dmb sy
// 0 "" 2
#NO_APP
	ldr	x0, [x28]
.LVL102:
	mov	w22, -65535
.LVL103:
	str	w22, [x0, 36]
.LVL104:
.LBE68:
.LBB69:
	.loc 1 313 0
#APP
// 313 "./drivers/misc/rv1126b-secure-otp.c" 1
	dmb sy
// 0 "" 2
#NO_APP
	ldr	x0, [x28]
	mov	w1, 250
	str	w1, [x0, 4096]
.LVL105:
.LBE69:
.LBB70:
	.loc 1 314 0
#APP
// 314 "./drivers/misc/rv1126b-secure-otp.c" 1
	dmb sy
// 0 "" 2
#NO_APP
	ldr	x0, [x28]
	mov	w1, 9
	str	w1, [x0, 4100]
.LVL106:
.LBE70:
.LBB71:
	.loc 1 315 0
#APP
// 315 "./drivers/misc/rv1126b-secure-otp.c" 1
	dmb sy
// 0 "" 2
#NO_APP
	ldr	x0, [x28]
.LBE71:
	.loc 1 316 0
	mov	w1, 2
.LBB72:
	.loc 1 315 0
	str	w19, [x0, 32]
.LBE72:
	.loc 1 316 0
	mov	x0, x28
	bl	rockchip_secure_otp_wait_status.isra.2
.LVL107:
	.loc 1 317 0
	tbnz	w0, #31, .L35
.LVL108:
.LBB73:
	.loc 1 322 0
#APP
// 322 "./drivers/misc/rv1126b-secure-otp.c" 1
	dmb sy
// 0 "" 2
#NO_APP
	ldr	x0, [x28]
.LVL109:
	mov	w1, 14848
	movk	w1, 0xff00, lsl 16
	str	w1, [x0, 32]
.LVL110:
.LBE73:
.LBB74:
	.loc 1 323 0
#APP
// 323 "./drivers/misc/rv1126b-secure-otp.c" 1
	dmb sy
// 0 "" 2
#NO_APP
	ldr	x0, [x28]
	mov	w1, -65522
	str	w1, [x0, 36]
.LVL111:
.LBE74:
.LBB75:
	.loc 1 324 0
#APP
// 324 "./drivers/misc/rv1126b-secure-otp.c" 1
	dmb sy
// 0 "" 2
#NO_APP
	ldr	x0, [x28]
	str	w27, [x0, 4096]
.LVL112:
.LBE75:
.LBB76:
	.loc 1 325 0
#APP
// 325 "./drivers/misc/rv1126b-secure-otp.c" 1
	dmb sy
// 0 "" 2
#NO_APP
	ldr	x0, [x28]
	str	w23, [x0, 4100]
.LVL113:
.LBE76:
.LBB77:
	.loc 1 326 0
#APP
// 326 "./drivers/misc/rv1126b-secure-otp.c" 1
	dmb sy
// 0 "" 2
#NO_APP
	ldr	x0, [x28]
	str	w26, [x0, 4104]
.LVL114:
.LBE77:
.LBB78:
	.loc 1 327 0
#APP
// 327 "./drivers/misc/rv1126b-secure-otp.c" 1
	dmb sy
// 0 "" 2
#NO_APP
	ldr	x0, [x28]
	mov	w1, 21
	str	w1, [x0, 4108]
.LVL115:
.LBE78:
.LBB79:
	.loc 1 328 0
#APP
// 328 "./drivers/misc/rv1126b-secure-otp.c" 1
	dmb sy
// 0 "" 2
#NO_APP
	ldr	x0, [x28]
	mov	w1, 220
	str	w1, [x0, 4112]
.LVL116:
.LBE79:
.LBB80:
	.loc 1 329 0
#APP
// 329 "./drivers/misc/rv1126b-secure-otp.c" 1
	dmb sy
// 0 "" 2
#NO_APP
	ldr	x0, [x28]
	mov	w1, 146
	str	w1, [x0, 4116]
.LVL117:
.LBE80:
.LBB81:
	.loc 1 330 0
#APP
// 330 "./drivers/misc/rv1126b-secure-otp.c" 1
	dmb sy
// 0 "" 2
#NO_APP
	ldr	x0, [x28]
	mov	w1, 121
	str	w1, [x0, 4120]
.LVL118:
.LBE81:
.LBB82:
	.loc 1 331 0
#APP
// 331 "./drivers/misc/rv1126b-secure-otp.c" 1
	dmb sy
// 0 "" 2
#NO_APP
	ldr	x0, [x28]
	mov	w1, 129
	str	w1, [x0, 4124]
.LVL119:
.LBE82:
.LBB83:
	.loc 1 332 0
#APP
// 332 "./drivers/misc/rv1126b-secure-otp.c" 1
	dmb sy
// 0 "" 2
#NO_APP
	ldr	x0, [x28]
	mov	w1, 126
	str	w1, [x0, 4128]
.LVL120:
.LBE83:
.LBB84:
	.loc 1 333 0
#APP
// 333 "./drivers/misc/rv1126b-secure-otp.c" 1
	dmb sy
// 0 "" 2
#NO_APP
	ldr	x0, [x28]
	mov	w1, 33
	str	w1, [x0, 4132]
.LVL121:
.LBE84:
.LBB85:
	.loc 1 334 0
#APP
// 334 "./drivers/misc/rv1126b-secure-otp.c" 1
	dmb sy
// 0 "" 2
#NO_APP
	ldr	x0, [x28]
	mov	w1, 17
	str	w1, [x0, 4136]
.LVL122:
.LBE85:
.LBB86:
	.loc 1 335 0
#APP
// 335 "./drivers/misc/rv1126b-secure-otp.c" 1
	dmb sy
// 0 "" 2
#NO_APP
	ldr	x0, [x28]
	mov	w1, 157
	str	w1, [x0, 4140]
.LVL123:
.LBE86:
.LBB87:
	.loc 1 336 0
#APP
// 336 "./drivers/misc/rv1126b-secure-otp.c" 1
	dmb sy
// 0 "" 2
#NO_APP
	ldr	x0, [x28]
	mov	w26, 2
	str	w26, [x0, 4144]
.LVL124:
.LBE87:
.LBB88:
	.loc 1 337 0
#APP
// 337 "./drivers/misc/rv1126b-secure-otp.c" 1
	dmb sy
// 0 "" 2
#NO_APP
	ldr	x0, [x28]
	str	wzr, [x0, 4148]
.LVL125:
.LBE88:
.LBB89:
	.loc 1 338 0
#APP
// 338 "./drivers/misc/rv1126b-secure-otp.c" 1
	dmb sy
// 0 "" 2
#NO_APP
	ldr	x0, [x28]
	mov	w1, 64
	str	w1, [x0, 4152]
.LVL126:
.LBE89:
.LBB90:
	.loc 1 339 0
#APP
// 339 "./drivers/misc/rv1126b-secure-otp.c" 1
	dmb sy
// 0 "" 2
#NO_APP
	ldr	x0, [x28]
.LBE90:
	.loc 1 340 0
	mov	w1, w26
.LBB91:
	.loc 1 339 0
	str	w19, [x0, 32]
.LBE91:
	.loc 1 340 0
	mov	x0, x28
	bl	rockchip_secure_otp_wait_status.isra.2
.LVL127:
	.loc 1 341 0
	tbnz	w0, #31, .L35
.LVL128:
.LBB92:
	.loc 1 346 0
#APP
// 346 "./drivers/misc/rv1126b-secure-otp.c" 1
	dmb sy
// 0 "" 2
#NO_APP
	ldr	x0, [x28]
.LVL129:
	str	w24, [x0, 36]
.LVL130:
.LBE92:
.LBB93:
	.loc 1 347 0
#APP
// 347 "./drivers/misc/rv1126b-secure-otp.c" 1
	dmb sy
// 0 "" 2
#NO_APP
	ldr	x0, [x28]
	mov	w1, 252
	str	w1, [x0, 4096]
.LVL131:
.LBE93:
.LBB94:
	.loc 1 348 0
#APP
// 348 "./drivers/misc/rv1126b-secure-otp.c" 1
	dmb sy
// 0 "" 2
#NO_APP
	ldr	x0, [x28]
	mov	w27, 10
	str	w27, [x0, 4100]
.LVL132:
.LBE94:
.LBB95:
	.loc 1 349 0
#APP
// 349 "./drivers/misc/rv1126b-secure-otp.c" 1
	dmb sy
// 0 "" 2
#NO_APP
	ldr	x0, [x28]
	mov	w1, 112
	str	w1, [x0, 4104]
.LVL133:
.LBE95:
.LBB96:
	.loc 1 350 0
#APP
// 350 "./drivers/misc/rv1126b-secure-otp.c" 1
	dmb sy
// 0 "" 2
#NO_APP
	ldr	x0, [x28]
.LBE96:
	.loc 1 351 0
	mov	w1, w26
.LBB97:
	.loc 1 350 0
	str	w19, [x0, 32]
.LBE97:
	.loc 1 351 0
	mov	x0, x28
	bl	rockchip_secure_otp_wait_status.isra.2
.LVL134:
	.loc 1 352 0
	tbnz	w0, #31, .L35
.LVL135:
.LBB98:
	.loc 1 357 0
#APP
// 357 "./drivers/misc/rv1126b-secure-otp.c" 1
	dmb sy
// 0 "" 2
#NO_APP
	ldr	x0, [x28]
.LVL136:
	mov	w1, 512
	movk	w1, 0xff00, lsl 16
	str	w1, [x0, 32]
.LVL137:
.LBE98:
.LBB99:
	.loc 1 358 0
#APP
// 358 "./drivers/misc/rv1126b-secure-otp.c" 1
	dmb sy
// 0 "" 2
#NO_APP
	ldr	x0, [x28]
	str	w24, [x0, 36]
.LVL138:
.LBE99:
.LBB100:
	.loc 1 359 0
#APP
// 359 "./drivers/misc/rv1126b-secure-otp.c" 1
	dmb sy
// 0 "" 2
#NO_APP
	ldr	x0, [x28]
	mov	w1, 192
	str	w1, [x0, 4096]
.LBE100:
.LBB101:
	.loc 1 360 0
	and	w1, w21, 255
.LVL139:
#APP
// 360 "./drivers/misc/rv1126b-secure-otp.c" 1
	dmb sy
// 0 "" 2
#NO_APP
	ldr	x0, [x28]
.LBE101:
.LBB102:
	.loc 1 361 0
	lsr	w21, w21, 8
.LVL140:
.LBE102:
.LBB103:
	.loc 1 360 0
	str	w1, [x0, 4100]
.LBE103:
.LBB104:
	.loc 1 361 0
#APP
// 361 "./drivers/misc/rv1126b-secure-otp.c" 1
	dmb sy
// 0 "" 2
#NO_APP
	ldr	x0, [x28]
	str	w21, [x0, 4104]
.LVL141:
.LBE104:
.LBB105:
	.loc 1 362 0
#APP
// 362 "./drivers/misc/rv1126b-secure-otp.c" 1
	dmb sy
// 0 "" 2
#NO_APP
	ldr	x0, [x28]
.LBE105:
	.loc 1 363 0
	mov	w1, w26
.LVL142:
.LBB106:
	.loc 1 362 0
	str	w19, [x0, 32]
.LBE106:
	.loc 1 363 0
	mov	x0, x28
	bl	rockchip_secure_otp_wait_status.isra.2
.LVL143:
	.loc 1 364 0
	tbnz	w0, #31, .L35
.LVL144:
.LBB107:
	.loc 1 369 0
#APP
// 369 "./drivers/misc/rv1126b-secure-otp.c" 1
	dmb sy
// 0 "" 2
#NO_APP
	ldr	x0, [x28]
.LVL145:
	str	w22, [x0, 36]
.LVL146:
.LBE107:
.LBB108:
	.loc 1 370 0
#APP
// 370 "./drivers/misc/rv1126b-secure-otp.c" 1
	dmb sy
// 0 "" 2
#NO_APP
	ldr	x0, [x28]
	mov	w1, 224
	str	w1, [x0, 4096]
.LVL147:
.LBE108:
.LBB109:
	.loc 1 371 0
#APP
// 371 "./drivers/misc/rv1126b-secure-otp.c" 1
	dmb sy
// 0 "" 2
#NO_APP
	ldr	x0, [x28]
	str	wzr, [x0, 4100]
.LVL148:
.LBE109:
.LBB110:
	.loc 1 372 0
#APP
// 372 "./drivers/misc/rv1126b-secure-otp.c" 1
	dmb sy
// 0 "" 2
#NO_APP
	ldr	x0, [x28]
.LBE110:
	.loc 1 373 0
	mov	w1, w26
.LBB111:
	.loc 1 372 0
	str	w19, [x0, 32]
.LBE111:
	.loc 1 373 0
	mov	x0, x28
	bl	rockchip_secure_otp_wait_status.isra.2
.LVL149:
	.loc 1 374 0
	tbnz	w0, #31, .L35
.LVL150:
.LBB112:
	.loc 1 379 0
#APP
// 379 "./drivers/misc/rv1126b-secure-otp.c" 1
	dmb sy
// 0 "" 2
#NO_APP
	ldr	x0, [x28]
.LVL151:
	str	w22, [x0, 36]
.LVL152:
.LBE112:
.LBB113:
	.loc 1 380 0
#APP
// 380 "./drivers/misc/rv1126b-secure-otp.c" 1
	dmb sy
// 0 "" 2
#NO_APP
	ldr	x0, [x28]
	mov	w1, 14848
	movk	w1, 0xff00, lsl 16
	str	w1, [x0, 32]
.LVL153:
.LBE113:
.LBB114:
	.loc 1 381 0
#APP
// 381 "./drivers/misc/rv1126b-secure-otp.c" 1
	dmb sy
// 0 "" 2
#NO_APP
	ldr	x0, [x28]
	mov	w1, 255
	str	w1, [x0, 4096]
.LVL154:
.LBE114:
.LBB115:
	.loc 1 382 0
#APP
// 382 "./drivers/misc/rv1126b-secure-otp.c" 1
	dmb sy
// 0 "" 2
#NO_APP
	ldr	x0, [x28]
	str	w27, [x0, 4100]
.LVL155:
.LBE115:
.LBB116:
	.loc 1 383 0
#APP
// 383 "./drivers/misc/rv1126b-secure-otp.c" 1
	dmb sy
// 0 "" 2
#NO_APP
	ldr	x0, [x28]
.LBE116:
	.loc 1 384 0
	mov	w1, w26
.LBB117:
	.loc 1 383 0
	str	w19, [x0, 32]
.LBE117:
	.loc 1 384 0
	mov	x0, x28
	bl	rockchip_secure_otp_wait_status.isra.2
.LVL156:
	.loc 1 385 0
	tbnz	w0, #31, .L35
.LVL157:
.LBB118:
	.loc 1 390 0
#APP
// 390 "./drivers/misc/rv1126b-secure-otp.c" 1
	dmb sy
// 0 "" 2
#NO_APP
	ldr	x0, [x28]
.LVL158:
	str	w22, [x0, 36]
.LVL159:
.LBE118:
.LBB119:
	.loc 1 391 0
#APP
// 391 "./drivers/misc/rv1126b-secure-otp.c" 1
	dmb sy
// 0 "" 2
#NO_APP
	ldr	x0, [x28]
	str	w23, [x0, 4096]
.LVL160:
.LBE119:
.LBB120:
	.loc 1 392 0
#APP
// 392 "./drivers/misc/rv1126b-secure-otp.c" 1
	dmb sy
// 0 "" 2
#NO_APP
	ldr	x0, [x28]
	mov	w1, 191
	str	w1, [x0, 4100]
.LVL161:
.LBE120:
.LBB121:
	.loc 1 393 0
#APP
// 393 "./drivers/misc/rv1126b-secure-otp.c" 1
	dmb sy
// 0 "" 2
#NO_APP
	ldr	x0, [x28]
.LBE121:
	.loc 1 394 0
	mov	w1, w26
.LBB122:
	.loc 1 393 0
	str	w19, [x0, 32]
.LBE122:
	.loc 1 394 0
	mov	x0, x28
	bl	rockchip_secure_otp_wait_status.isra.2
.LVL162:
	.loc 1 395 0
	tbnz	w0, #31, .L35
	.loc 1 400 0
	mov	x0, x28
.LVL163:
	bl	rockchip_secure_otp_check_flag.isra.0
.LVL164:
	.loc 1 401 0
	tbz	w0, #31, .L36
	.loc 1 402 0
	adrp	x1, .LANCHOR1
	adrp	x0, .LC7
.LVL165:
	add	x1, x1, :lo12:.LANCHOR1
	add	x0, x0, :lo12:.LC7
	b	.L41
.LVL166:
.L36:
.LBB123:
	.loc 1 406 0
#APP
// 406 "./drivers/misc/rv1126b-secure-otp.c" 1
	dmb sy
// 0 "" 2
#NO_APP
	ldr	x0, [x28]
.LVL167:
	mov	w22, -65535
	str	w22, [x0, 36]
.LVL168:
.LBE123:
.LBB124:
	.loc 1 407 0
#APP
// 407 "./drivers/misc/rv1126b-secure-otp.c" 1
	dmb sy
// 0 "" 2
#NO_APP
	ldr	x0, [x28]
	mov	w19, 2
	str	w19, [x0, 4096]
.LVL169:
.LBE124:
.LBB125:
	.loc 1 408 0
#APP
// 408 "./drivers/misc/rv1126b-secure-otp.c" 1
	dmb sy
// 0 "" 2
#NO_APP
	ldr	x0, [x28]
	mov	w1, 191
	str	w1, [x0, 4100]
.LVL170:
.LBE125:
.LBB126:
	.loc 1 409 0
#APP
// 409 "./drivers/misc/rv1126b-secure-otp.c" 1
	dmb sy
// 0 "" 2
#NO_APP
	ldr	x0, [x28]
	mov	w21, 65537
.LVL171:
.LBE126:
	.loc 1 410 0
	mov	w1, w19
.LBB127:
	.loc 1 409 0
	str	w21, [x0, 32]
.LBE127:
	.loc 1 410 0
	mov	x0, x28
	bl	rockchip_secure_otp_wait_status.isra.2
.LVL172:
	.loc 1 411 0
	tbnz	w0, #31, .L35
	.loc 1 416 0
	mov	x0, x28
.LVL173:
	bl	rockchip_secure_otp_wait_flag.isra.1
.LVL174:
	.loc 1 417 0
	tbz	w0, #31, .L37
	.loc 1 418 0
	adrp	x1, .LANCHOR1
	adrp	x0, .LC8
.LVL175:
	add	x1, x1, :lo12:.LANCHOR1
	add	x0, x0, :lo12:.LC8
	b	.L41
.LVL176:
.L37:
.LBB128:
	.loc 1 422 0
#APP
// 422 "./drivers/misc/rv1126b-secure-otp.c" 1
	dmb sy
// 0 "" 2
#NO_APP
	ldr	x0, [x28]
.LVL177:
	mov	w1, -65533
	str	w1, [x0, 772]
.LVL178:
.LBE128:
.LBB129:
	.loc 1 423 0
#APP
// 423 "./drivers/misc/rv1126b-secure-otp.c" 1
	dmb sy
// 0 "" 2
#NO_APP
	ldr	x0, [x28]
	mov	w1, 512
	movk	w1, 0xff00, lsl 16
	str	w1, [x0, 32]
.LVL179:
.LBE129:
.LBB130:
	.loc 1 424 0
#APP
// 424 "./drivers/misc/rv1126b-secure-otp.c" 1
	dmb sy
// 0 "" 2
#NO_APP
	ldr	x0, [x28]
	str	w22, [x0, 36]
.LVL180:
.LBE130:
.LBB131:
	.loc 1 425 0
#APP
// 425 "./drivers/misc/rv1126b-secure-otp.c" 1
	dmb sy
// 0 "" 2
#NO_APP
	ldr	x0, [x28]
	str	w19, [x0, 4096]
.LVL181:
.LBE131:
.LBB132:
	.loc 1 426 0
#APP
// 426 "./drivers/misc/rv1126b-secure-otp.c" 1
	dmb sy
// 0 "" 2
#NO_APP
	ldr	x0, [x28]
	mov	w1, 128
	str	w1, [x0, 4100]
.LVL182:
.LBE132:
.LBB133:
	.loc 1 427 0
#APP
// 427 "./drivers/misc/rv1126b-secure-otp.c" 1
	dmb sy
// 0 "" 2
#NO_APP
	ldr	x0, [x28]
.LBE133:
	.loc 1 428 0
	mov	w1, w19
.LBB134:
	.loc 1 427 0
	str	w21, [x0, 32]
.LBE134:
	.loc 1 428 0
	mov	x0, x28
	bl	rockchip_secure_otp_wait_status.isra.2
.LVL183:
	.loc 1 429 0
	tbnz	w0, #31, .L35
.LVL184:
.LBB135:
	.loc 1 434 0
#APP
// 434 "./drivers/misc/rv1126b-secure-otp.c" 1
	dmb sy
// 0 "" 2
#NO_APP
	ldr	x0, [x28]
.LVL185:
	str	w22, [x0, 36]
.LVL186:
.LBE135:
.LBB136:
	.loc 1 435 0
#APP
// 435 "./drivers/misc/rv1126b-secure-otp.c" 1
	dmb sy
// 0 "" 2
#NO_APP
	ldr	x0, [x28]
	mov	w1, 160
	str	w1, [x0, 4096]
.LVL187:
.LBE136:
.LBB137:
	.loc 1 436 0
#APP
// 436 "./drivers/misc/rv1126b-secure-otp.c" 1
	dmb sy
// 0 "" 2
#NO_APP
	ldr	x0, [x28]
	str	wzr, [x0, 4100]
.LVL188:
.LBE137:
.LBB138:
	.loc 1 437 0
#APP
// 437 "./drivers/misc/rv1126b-secure-otp.c" 1
	dmb sy
// 0 "" 2
#NO_APP
	ldr	x0, [x28]
.LBE138:
	.loc 1 438 0
	mov	w1, w19
.LBB139:
	.loc 1 437 0
	str	w21, [x0, 32]
.LBE139:
	.loc 1 438 0
	mov	x0, x28
	bl	rockchip_secure_otp_wait_status.isra.2
.LVL189:
	.loc 1 439 0
	tbnz	w0, #31, .L35
.LVL190:
.LBB140:
	.loc 1 444 0
#APP
// 444 "./drivers/misc/rv1126b-secure-otp.c" 1
	dmb sy
// 0 "" 2
#NO_APP
	ldr	x0, [x28]
.LVL191:
	mov	w1, 250
	str	w1, [x0, 4096]
.LVL192:
.LBE140:
.LBB141:
	.loc 1 445 0
#APP
// 445 "./drivers/misc/rv1126b-secure-otp.c" 1
	dmb sy
// 0 "" 2
#NO_APP
	ldr	x0, [x28]
	mov	w1, 9
	str	w1, [x0, 4100]
.LVL193:
.LBE141:
.LBB142:
	.loc 1 446 0
#APP
// 446 "./drivers/misc/rv1126b-secure-otp.c" 1
	dmb sy
// 0 "" 2
#NO_APP
	ldr	x0, [x28]
.LBE142:
	.loc 1 447 0
	mov	w1, w19
.LBB143:
	.loc 1 446 0
	str	w21, [x0, 32]
.LBE143:
	.loc 1 447 0
	mov	x0, x28
	bl	rockchip_secure_otp_wait_status.isra.2
.LVL194:
	.loc 1 448 0
	tbz	w0, #31, .L34
	b	.L35
	.cfi_endproc
.LFE279:
	.size	rv1126b_secure_otp_write_2_bytes_noecc, .-rv1126b_secure_otp_write_2_bytes_noecc
	.section	.text.rockchip_secure_otp_ecc_enable,"ax",@progbits
	.align	2
	.type	rockchip_secure_otp_ecc_enable, %function
rockchip_secure_otp_ecc_enable:
.LFB277:
	.loc 1 153 0
	.cfi_startproc
.LVL195:
	stp	x29, x30, [sp, -32]!
	.cfi_def_cfa_offset 32
	.cfi_offset 29, -32
	.cfi_offset 30, -24
	and	w1, w1, 255
	add	x29, sp, 0
	.cfi_def_cfa_register 29
	str	x19, [sp, 16]
	.cfi_offset 19, -16
.LBB158:
	.loc 1 156 0
#APP
// 156 "./drivers/misc/rv1126b-secure-otp.c" 1
	dmb sy
// 0 "" 2
#NO_APP
	ldr	x2, [x0]
	mov	w3, 512
	movk	w3, 0xff00, lsl 16
	str	w3, [x2, 32]
.LVL196:
.LBE158:
.LBB159:
	.loc 1 157 0
#APP
// 157 "./drivers/misc/rv1126b-secure-otp.c" 1
	dmb sy
// 0 "" 2
#NO_APP
	ldr	x2, [x0]
	mov	w3, -65535
	str	w3, [x2, 36]
.LVL197:
.LBE159:
.LBB160:
	.loc 1 158 0
#APP
// 158 "./drivers/misc/rv1126b-secure-otp.c" 1
	dmb sy
// 0 "" 2
#NO_APP
	ldr	x2, [x0]
	mov	w3, 250
	str	w3, [x2, 4096]
.LBE160:
	.loc 1 159 0
	cbz	w1, .L43
.LVL198:
.LBB161:
	.loc 1 160 0
#APP
// 160 "./drivers/misc/rv1126b-secure-otp.c" 1
	dmb sy
// 0 "" 2
#NO_APP
	ldr	x1, [x0]
.LVL199:
	str	wzr, [x1, 4100]
.LVL200:
.L44:
.LBE161:
.LBB162:
	.loc 1 164 0
#APP
// 164 "./drivers/misc/rv1126b-secure-otp.c" 1
	dmb sy
// 0 "" 2
#NO_APP
	ldr	x1, [x0]
	mov	w2, 65537
	str	w2, [x1, 32]
.LBE162:
	.loc 1 166 0
	mov	w1, 2
	bl	rockchip_secure_otp_wait_status.isra.2
.LVL201:
	mov	w19, w0
.LVL202:
	.loc 1 167 0
	tbz	w0, #31, .L42
.LVL203:
.LBB163:
.LBB164:
	.loc 1 168 0
	adrp	x1, .LANCHOR2
	adrp	x0, .LC9
.LVL204:
	add	x1, x1, :lo12:.LANCHOR2
	add	x0, x0, :lo12:.LC9
	bl	printf
.LVL205:
.L42:
.LBE164:
.LBE163:
	.loc 1 171 0
	mov	w0, w19
	ldr	x19, [sp, 16]
.LVL206:
	ldp	x29, x30, [sp], 32
	.cfi_remember_state
	.cfi_restore 30
	.cfi_restore 29
	.cfi_restore 19
	.cfi_def_cfa 31, 0
	ret
.LVL207:
.L43:
	.cfi_restore_state
.LBB165:
	.loc 1 162 0
#APP
// 162 "./drivers/misc/rv1126b-secure-otp.c" 1
	dmb sy
// 0 "" 2
#NO_APP
	ldr	x1, [x0]
	mov	w2, 9
	str	w2, [x1, 4100]
	b	.L44
.LBE165:
	.cfi_endproc
.LFE277:
	.size	rockchip_secure_otp_ecc_enable, .-rockchip_secure_otp_ecc_enable
	.section	.text.secure_otp_ioctl,"ax",@progbits
	.align	2
	.type	secure_otp_ioctl, %function
secure_otp_ioctl:
.LFB288:
	.loc 1 752 0
	.cfi_startproc
.LVL208:
	stp	x29, x30, [sp, -32]!
	.cfi_def_cfa_offset 32
	.cfi_offset 29, -32
	.cfi_offset 30, -24
	.loc 1 755 0
	mov	x3, 27910
	cmp	x1, x3
	.loc 1 752 0
	add	x29, sp, 0
	.cfi_def_cfa_register 29
	stp	x19, x20, [sp, 16]
	.cfi_offset 19, -16
	.cfi_offset 20, -8
	.loc 1 755 0
	beq	.L49
	mov	x3, 27911
	cmp	x1, x3
	beq	.L50
	mov	x0, 27908
.LVL209:
	cmp	x1, x0
	bne	.L54
.LVL210:
.LBB180:
.LBB181:
	.loc 1 702 0
	mov	w0, 8
	str	w0, [x2]
.LVL211:
.L56:
.LBE181:
.LBE180:
	.loc 1 763 0
	mov	w20, 0
	.loc 1 764 0
	b	.L47
.LVL212:
.L49:
.LBB182:
.LBB183:
	.loc 1 709 0
	bl	dev_get_platdata
.LVL213:
	mov	x19, x0
.LVL214:
.LBB184:
	.loc 1 713 0
#APP
// 713 "./drivers/misc/rv1126b-secure-otp.c" 1
	dmb sy
// 0 "" 2
#NO_APP
	ldr	x0, [x0]
.LVL215:
	mov	w20, 65537
	str	w20, [x0, 80]
.LBE184:
	.loc 1 714 0
	mov	x0, 2
	bl	udelay
.LVL216:
.LBB185:
	.loc 1 716 0
#APP
// 716 "./drivers/misc/rv1126b-secure-otp.c" 1
	dmb sy
// 0 "" 2
#NO_APP
	ldr	x0, [x19]
	mov	w1, 65536
	str	w1, [x0, 256]
.LBE185:
	.loc 1 717 0
	mov	x0, 2
	bl	udelay
.LVL217:
	.loc 1 718 0
	mov	w1, 1
	mov	x0, x19
	bl	rockchip_secure_otp_ecc_enable
.LVL218:
.LBB186:
	.loc 1 720 0
#APP
// 720 "./drivers/misc/rv1126b-secure-otp.c" 1
	dmb sy
// 0 "" 2
#NO_APP
	ldr	x0, [x19]
	str	w20, [x0, 256]
.LBE186:
	.loc 1 721 0
	mov	x0, 2
	bl	udelay
.LVL219:
.LBB187:
	.loc 1 723 0
#APP
// 723 "./drivers/misc/rv1126b-secure-otp.c" 1
	dmb sy
// 0 "" 2
#NO_APP
	ldr	x0, [x19]
	mov	w1, -65536
	str	w1, [x0, 260]
.LVL220:
.LBE187:
.LBB188:
	.loc 1 724 0
#APP
// 724 "./drivers/misc/rv1126b-secure-otp.c" 1
	dmb sy
// 0 "" 2
#NO_APP
	ldr	x0, [x19]
.LBE188:
	.loc 1 726 0
	mov	w1, 4
.LBB189:
	.loc 1 724 0
	str	w20, [x0, 264]
.LBE189:
	.loc 1 726 0
	mov	x0, x19
	bl	rockchip_secure_otp_wait_status.isra.2
.LVL221:
	mov	w20, w0
.LVL222:
	.loc 1 727 0
	tbz	w0, #31, .L52
	.loc 1 728 0
	adrp	x1, .LANCHOR3
	adrp	x0, .LC10
.LVL223:
	add	x1, x1, :lo12:.LANCHOR3
	add	x0, x0, :lo12:.LC10
	bl	printf
.LVL224:
.L47:
.LBE183:
.LBE182:
	.loc 1 770 0
	mov	w0, w20
	ldp	x19, x20, [sp, 16]
	ldp	x29, x30, [sp], 32
	.cfi_remember_state
	.cfi_restore 30
	.cfi_restore 29
	.cfi_restore 19
	.cfi_restore 20
	.cfi_def_cfa 31, 0
	ret
.LVL225:
.L52:
	.cfi_restore_state
.LBB192:
.LBB191:
.LBB190:
	.loc 1 733 0
#APP
// 733 "./drivers/misc/rv1126b-secure-otp.c" 1
	dmb sy
// 0 "" 2
#NO_APP
	ldr	x0, [x19, 32]
.LVL226:
	mov	w1, 1
	str	w1, [x0]
	b	.L47
.LVL227:
.L50:
.LBE190:
.LBE191:
.LBE192:
.LBB193:
.LBB194:
	.loc 1 740 0
	bl	dev_get_platdata
.LVL228:
.LBB195:
	.loc 1 743 0
#APP
// 743 "./drivers/misc/rv1126b-secure-otp.c" 1
	dmb sy
// 0 "" 2
#NO_APP
	ldr	x2, [x0]
	mov	w1, 65536
	str	w1, [x2, 256]
.LVL229:
.LBE195:
.LBB196:
	.loc 1 744 0
#APP
// 744 "./drivers/misc/rv1126b-secure-otp.c" 1
	dmb sy
// 0 "" 2
#NO_APP
	ldr	x0, [x0]
.LVL230:
	str	w1, [x0, 80]
	b	.L56
.LVL231:
.L54:
.LBE196:
.LBE194:
.LBE193:
	.loc 1 753 0
	mov	w20, -22
	.loc 1 769 0
	b	.L47
	.cfi_endproc
.LFE288:
	.size	secure_otp_ioctl, .-secure_otp_ioctl
	.section	.text.rv1126b_secure_otp_read,"ax",@progbits
	.align	2
	.type	rv1126b_secure_otp_read, %function
rv1126b_secure_otp_read:
.LFB278:
	.loc 1 175 0
	.cfi_startproc
.LVL232:
	stp	x29, x30, [sp, -96]!
	.cfi_def_cfa_offset 96
	.cfi_offset 29, -96
	.cfi_offset 30, -88
	add	x29, sp, 0
	.cfi_def_cfa_register 29
	stp	x19, x20, [sp, 16]
	.cfi_offset 19, -80
	.cfi_offset 20, -72
	mov	x19, x0
	stp	x21, x22, [sp, 32]
	.cfi_offset 21, -64
	.cfi_offset 22, -56
	mov	x21, x2
	mov	w22, w3
	stp	x23, x24, [sp, 48]
	str	x27, [sp, 80]
	.cfi_offset 23, -48
	.cfi_offset 24, -40
	.cfi_offset 27, -16
	mov	w27, w1
	stp	x25, x26, [sp, 64]
	.cfi_offset 25, -32
	.cfi_offset 26, -24
	.loc 1 176 0
	bl	dev_get_platdata
.LVL233:
	mov	x20, x0
.LVL234:
	.loc 1 177 0
	mov	x0, x19
.LVL235:
	bl	dev_get_driver_data
.LVL236:
	.loc 1 184 0
	ldr	x4, [x0, 16]
	.loc 1 177 0
	mov	x23, x0
.LVL237:
	.loc 1 183 0
	asr	w19, w27, 1
.LVL238:
	.loc 1 184 0
	ldp	x0, x2, [x20, 8]
.LVL239:
	mov	w3, w19
	ldr	x1, [x20, 24]
	blr	x4
.LVL240:
	.loc 1 187 0
	sub	w0, w19, #16
	cmp	w19, 170
	ccmp	w0, 1, 0, ne
	bls	.L58
	.loc 1 187 0 is_stmt 0 discriminator 1
	sub	w0, w19, #392
	cmp	w0, 7
	bhi	.L59
.L58:
	.loc 1 188 0 is_stmt 1
	mov	w1, 0
.L73:
	.loc 1 190 0
	mov	x0, x20
	bl	rockchip_secure_otp_ecc_enable
.LVL241:
.LBB197:
	.loc 1 193 0
#APP
// 193 "./drivers/misc/rv1126b-secure-otp.c" 1
	dmb sy
// 0 "" 2
#NO_APP
	ldr	x0, [x20]
	mov	w26, 65537
.LBE197:
	.loc 1 180 0
	mov	w24, 0
	.loc 1 222 0
	and	w27, w27, 1
.LVL242:
.LBB198:
	.loc 1 193 0
	str	w26, [x0, 256]
.LBE198:
	.loc 1 194 0
	mov	x0, 50
	bl	udelay
.LVL243:
.L61:
	.loc 1 195 0
	sub	w25, w22, #1
.LVL244:
	cbz	w22, .L66
	.loc 1 197 0
	cmp	w19, 415
	ble	.L62
	.loc 1 198 0
	adrp	x0, .LC11
	mov	w1, w19
	add	x0, x0, :lo12:.LC11
.L76:
	.loc 1 207 0
	mov	w24, -1
.LVL245:
	.loc 1 206 0
	bl	printf
.LVL246:
.L57:
	.loc 1 246 0
	mov	w0, w24
	ldr	x27, [sp, 80]
	ldp	x19, x20, [sp, 16]
.LVL247:
	ldp	x21, x22, [sp, 32]
.LVL248:
	ldp	x23, x24, [sp, 48]
.LVL249:
	ldp	x25, x26, [sp, 64]
.LVL250:
	ldp	x29, x30, [sp], 96
	.cfi_remember_state
	.cfi_restore 30
	.cfi_restore 29
	.cfi_restore 27
	.cfi_restore 25
	.cfi_restore 26
	.cfi_restore 23
	.cfi_restore 24
	.cfi_restore 21
	.cfi_restore 22
	.cfi_restore 19
	.cfi_restore 20
	.cfi_def_cfa 31, 0
	ret
.LVL251:
.L59:
	.cfi_restore_state
	.loc 1 190 0
	mov	w1, 1
	b	.L73
.LVL252:
.L62:
	.loc 1 202 0
	sub	w0, w19, #16
	cmp	w19, 170
	ccmp	w0, 1, 0, ne
	bls	.L64
	.loc 1 202 0 is_stmt 0 discriminator 1
	sub	w0, w19, #192
	cmp	w0, 63
	bls	.L64
	.loc 1 202 0 discriminator 2
	sub	w0, w19, #392
	cmp	w0, 7
	bls	.L64
	.loc 1 206 0 is_stmt 1
	adrp	x0, .LC12
	lsl	w1, w19, 1
	add	x0, x0, :lo12:.LC12
	b	.L76
.L64:
.LBB199:
	.loc 1 210 0
	orr	w1, w19, -65536
.LVL253:
#APP
// 210 "./drivers/misc/rv1126b-secure-otp.c" 1
	dmb sy
// 0 "" 2
#NO_APP
	ldr	x0, [x20]
.LBE199:
	.loc 1 211 0
	add	w19, w19, 1
.LVL254:
.LBB200:
	.loc 1 210 0
	str	w1, [x0, 260]
.LBE200:
.LBB201:
	.loc 1 212 0
#APP
// 212 "./drivers/misc/rv1126b-secure-otp.c" 1
	dmb sy
// 0 "" 2
#NO_APP
	ldr	x0, [x20]
.LBE201:
	.loc 1 214 0
	mov	w1, 4
.LVL255:
.LBB202:
	.loc 1 212 0
	str	w26, [x0, 264]
.LVL256:
.LBE202:
	.loc 1 214 0
	mov	x0, x20
	bl	rockchip_secure_otp_wait_status.isra.2
.LVL257:
	mov	w24, w0
.LVL258:
	.loc 1 215 0
	tbz	w0, #31, .L65
	.loc 1 216 0
	adrp	x1, .LANCHOR4
	adrp	x0, .LC13
.LVL259:
	add	x1, x1, :lo12:.LANCHOR4
	add	x0, x0, :lo12:.LC13
	bl	printf
.LVL260:
.L66:
.LBB203:
	.loc 1 239 0
#APP
// 239 "./drivers/misc/rv1126b-secure-otp.c" 1
	dmb sy
// 0 "" 2
#NO_APP
	ldr	x0, [x20]
	mov	w1, 65536
.LBE203:
	.loc 1 241 0
	ldr	x2, [x20, 16]
	mov	w3, w19
	ldr	x4, [x23, 24]
.LBB204:
	.loc 1 239 0
	str	w1, [x0, 256]
.LBE204:
	.loc 1 241 0
	ldr	x0, [x20, 8]
	ldr	x1, [x20, 24]
	blr	x4
.LVL261:
	.loc 1 245 0
	b	.L57
.LVL262:
.L65:
.LBB205:
	.loc 1 220 0
	ldr	x0, [x20]
.LVL263:
	ldrh	w0, [x0, 292]
	and	w0, w0, 65535
.LVL264:
#APP
// 220 "./drivers/misc/rv1126b-secure-otp.c" 1
	dmb sy
// 0 "" 2
.LVL265:
#NO_APP
.LBE205:
	.loc 1 222 0
	cbnz	w27, .L67
.LVL266:
	.loc 1 223 0
	strb	w0, [x21]
	.loc 1 224 0
	cbnz	w25, .L68
.LVL267:
.L75:
	.loc 1 230 0
	add	x21, x21, 1
.L69:
	.loc 1 232 0
	mov	w22, w25
	b	.L61
.LVL268:
.L68:
	.loc 1 225 0
	lsr	w0, w0, 8
.LVL269:
	strb	w0, [x21, 1]
.LVL270:
.L74:
	.loc 1 233 0
	sub	w25, w22, #2
.LVL271:
	.loc 1 232 0
	add	x21, x21, 2
	b	.L69
.LVL272:
.L67:
	.loc 1 229 0
	lsr	w0, w0, 8
.LVL273:
	.loc 1 230 0
	strb	w0, [x21]
	.loc 1 231 0
	cbz	w25, .L75
.LVL274:
	.loc 1 232 0
	strb	wzr, [x21, 1]
	b	.L74
	.cfi_endproc
.LFE278:
	.size	rv1126b_secure_otp_read, .-rv1126b_secure_otp_read
	.section	.text.rv1126b_secure_otp_write,"ax",@progbits
	.align	2
	.type	rv1126b_secure_otp_write, %function
rv1126b_secure_otp_write:
.LFB282:
	.loc 1 634 0
	.cfi_startproc
.LVL275:
	stp	x29, x30, [sp, -144]!
	.cfi_def_cfa_offset 144
	.cfi_offset 29, -144
	.cfi_offset 30, -136
	add	x29, sp, 0
	.cfi_def_cfa_register 29
	stp	x19, x20, [sp, 16]
	.cfi_offset 19, -128
	.cfi_offset 20, -120
	mov	w20, w1
	stp	x21, x22, [sp, 32]
	.cfi_offset 21, -112
	.cfi_offset 22, -104
	mov	w21, w3
	stp	x25, x26, [sp, 64]
	.cfi_offset 25, -80
	.cfi_offset 26, -72
	mov	x25, x0
	stp	x27, x28, [sp, 80]
	stp	x23, x24, [sp, 48]
	.cfi_offset 27, -64
	.cfi_offset 28, -56
	.cfi_offset 23, -96
	.cfi_offset 24, -88
	.loc 1 634 0
	str	x2, [x29, 112]
	.loc 1 635 0
	bl	dev_get_platdata
.LVL276:
	mov	x28, x0
.LVL277:
	.loc 1 638 0
	sxtw	x0, w21
.LVL278:
	bl	malloc_simple
.LVL279:
	.loc 1 641 0
	cbnz	x0, .L78
.LVL280:
.L127:
	.loc 1 656 0
	mov	w27, -1
.LVL281:
.L77:
	.loc 1 682 0
	mov	w0, w27
	ldp	x19, x20, [sp, 16]
.LVL282:
	ldp	x21, x22, [sp, 32]
	ldp	x23, x24, [sp, 48]
	ldp	x25, x26, [sp, 64]
.LVL283:
	ldp	x27, x28, [sp, 80]
.LVL284:
	ldp	x29, x30, [sp], 144
	.cfi_remember_state
	.cfi_restore 30
	.cfi_restore 29
	.cfi_restore 27
	.cfi_restore 28
	.cfi_restore 25
	.cfi_restore 26
	.cfi_restore 23
	.cfi_restore 24
	.cfi_restore 21
	.cfi_restore 22
	.cfi_restore 19
	.cfi_restore 20
	.cfi_def_cfa 31, 0
.LVL285:
	ret
.LVL286:
.L78:
	.cfi_restore_state
	mov	x19, x0
	.loc 1 644 0
	sub	w0, w20, #384
.LVL287:
	cmp	w0, 127
	bls	.L80
.LVL288:
.L87:
	.loc 1 662 0
	sub	w0, w20, #32
	cmp	w20, 340
	ccmp	w0, 3, 0, ne
	bls	.L110
	.loc 1 662 0 is_stmt 0 discriminator 1
	sub	w0, w20, #784
	cmp	w0, 15
	bls	.L110
	.loc 1 672 0 is_stmt 1 discriminator 1
	mov	w0, 2
.LBB273:
.LBB274:
	.loc 1 620 0 discriminator 1
	adrp	x19, .LANCHOR5
.LVL289:
	add	x19, x19, :lo12:.LANCHOR5
.LBE274:
.LBE273:
	.loc 1 672 0 discriminator 1
	mov	x24, 0
	sdiv	w0, w21, w0
	str	w0, [x29, 108]
.LVL290:
.L88:
	ldr	w0, [x29, 108]
	cmp	w0, w24
	ble	.L107
	.loc 1 673 0
	ldr	x0, [x29, 112]
	add	w22, w20, w24, lsl 1
.LBB354:
.LBB350:
	.loc 1 489 0
	asr	w21, w22, 1
.LBE350:
.LBE354:
	.loc 1 673 0
	ldrh	w26, [x0, x24, lsl 1]
.LVL291:
.LBB355:
.LBB351:
	.loc 1 487 0
	mov	x0, x25
	bl	dev_get_driver_data
.LVL292:
	str	x0, [x29, 120]
.LVL293:
	.loc 1 490 0
	cmp	w21, 415
	bgt	.L111
	.loc 1 494 0
	sub	w0, w21, #16
.LVL294:
	cmp	w21, 170
	ccmp	w0, 1, 0, ne
	bls	.L95
	sub	w0, w21, #192
	cmp	w0, 63
	bls	.L95
	.loc 1 495 0
	sub	w0, w21, #392
	.loc 1 494 0
	cmp	w0, 7
	bls	.L95
	.loc 1 498 0
	adrp	x0, .LC5
	and	w1, w22, -2
	add	x0, x0, :lo12:.LC5
	bl	printf
.LVL295:
.L111:
	.loc 1 490 0
	mov	w27, -1
	b	.L94
.LVL296:
.L80:
.LBE351:
.LBE355:
	.loc 1 646 0
	mov	w3, w21
	mov	x2, x19
	mov	w1, w20
	mov	x0, x25
	bl	rv1126b_secure_otp_read
.LVL297:
	.loc 1 647 0
	cbnz	w0, .L127
	mov	x0, 0
.LVL298:
.L85:
	.loc 1 652 0 discriminator 1
	cmp	w21, w0
	ble	.L87
	add	x0, x0, 1
.LVL299:
	.loc 1 653 0
	add	x1, x19, x0
	ldrb	w1, [x1, -1]
	cbz	w1, .L85
	.loc 1 654 0
	adrp	x0, .LC14
	add	x0, x0, :lo12:.LC14
	bl	printf
.LVL300:
	b	.L127
.LVL301:
.L93:
.LBB356:
.LBB357:
	.loc 1 467 0
	adds	w24, w20, w19
.LBE357:
.LBE356:
	.loc 1 665 0
	ldr	x0, [x29, 112]
.LBB362:
.LBB358:
	.loc 1 467 0
	and	w26, w24, 1
	mov	w3, 2
	csneg	w22, w26, w26, pl
	add	x2, x29, 142
	sub	w22, w24, w22
.LBE358:
.LBE362:
	.loc 1 665 0
	ldrb	w23, [x0, x19]
.LVL302:
.LBB363:
.LBB359:
	.loc 1 467 0
	mov	w1, w22
	mov	x0, x25
	bl	rv1126b_secure_otp_read
.LVL303:
	.loc 1 468 0
	cbnz	w0, .L89
	ldrh	w3, [x29, 142]
	.loc 1 471 0
	cbnz	w26, .L90
.LVL304:
	.loc 1 473 0
	bic	w3, w23, w3
	mov	w2, w24
.LVL305:
.L124:
	.loc 1 476 0
	mov	x1, x28
	mov	x0, x25
.LVL306:
	add	x19, x19, 1
.LVL307:
	bl	rv1126b_secure_otp_write_2_bytes_noecc
.LVL308:
	mov	w27, w0
.LVL309:
.LBE359:
.LBE363:
	.loc 1 666 0
	cbz	w0, .L92
.L108:
	.loc 1 667 0
	adrp	x0, .LC15
	add	x0, x0, :lo12:.LC15
.LVL310:
.L126:
	.loc 1 675 0
	bl	printf
.LVL311:
	.loc 1 676 0
	b	.L77
.LVL312:
.L90:
.LBB364:
.LBB360:
	.loc 1 475 0
	lsl	w23, w23, 8
.LVL313:
	.loc 1 476 0
	mov	w2, w22
	bic	w3, w23, w3
	b	.L124
.LVL314:
.L110:
.LBE360:
.LBE364:
	mov	x19, 0
.LVL315:
.L92:
	.loc 1 664 0 discriminator 1
	cmp	w21, w19
	bgt	.L93
.LVL316:
.L107:
	.loc 1 642 0
	mov	w27, 0
	b	.L77
.LVL317:
.L95:
.LBB365:
.LBB352:
	.loc 1 502 0
	cbz	w26, .L96
	.loc 1 505 0
	ldr	x0, [x29, 120]
	mov	w3, w21
	ldp	x2, x1, [x28, 16]
	ldr	x5, [x0, 16]
	ldr	x0, [x28, 8]
	blr	x5
.LVL318:
.LBB275:
	.loc 1 508 0
#APP
// 508 "./drivers/misc/rv1126b-secure-otp.c" 1
	dmb sy
// 0 "" 2
#NO_APP
	ldr	x0, [x28]
	mov	w1, 65536
	str	w1, [x0, 256]
.LVL319:
.LBE275:
.LBB276:
	.loc 1 509 0
#APP
// 509 "./drivers/misc/rv1126b-secure-otp.c" 1
	dmb sy
// 0 "" 2
#NO_APP
	ldr	x0, [x28]
	mov	w1, 262148
	str	w1, [x0, 32]
.LVL320:
.LBE276:
.LBB277:
	.loc 1 510 0
#APP
// 510 "./drivers/misc/rv1126b-secure-otp.c" 1
	dmb sy
// 0 "" 2
#NO_APP
	ldr	x0, [x28]
	mov	w1, -65536
	str	w1, [x0, 40]
.LVL321:
.LBE277:
.LBB278:
	.loc 1 511 0
#APP
// 511 "./drivers/misc/rv1126b-secure-otp.c" 1
	dmb sy
// 0 "" 2
#NO_APP
	ldr	x0, [x28]
	mov	w1, 512
	movk	w1, 0xff00, lsl 16
	str	w1, [x0, 32]
.LVL322:
.LBE278:
.LBB279:
	.loc 1 512 0
#APP
// 512 "./drivers/misc/rv1126b-secure-otp.c" 1
	dmb sy
// 0 "" 2
#NO_APP
	ldr	x0, [x28]
	mov	w1, -65522
	str	w1, [x0, 36]
.LVL323:
.LBE279:
.LBB280:
	.loc 1 513 0
#APP
// 513 "./drivers/misc/rv1126b-secure-otp.c" 1
	dmb sy
// 0 "" 2
#NO_APP
	ldr	x0, [x28]
	mov	w3, 240
	str	w3, [x29, 100]
.LVL324:
	str	w3, [x0, 4096]
.LBE280:
.LBB281:
	.loc 1 514 0
#APP
// 514 "./drivers/misc/rv1126b-secure-otp.c" 1
	dmb sy
// 0 "" 2
#NO_APP
	ldr	x0, [x28]
	mov	w1, 1
	str	w1, [x0, 4100]
.LVL325:
.LBE281:
.LBB282:
	.loc 1 515 0
#APP
// 515 "./drivers/misc/rv1126b-secure-otp.c" 1
	dmb sy
// 0 "" 2
#NO_APP
	ldr	x0, [x28]
	mov	w2, 122
	str	w2, [x29, 104]
.LVL326:
	str	w2, [x0, 4104]
.LBE282:
.LBB283:
	.loc 1 516 0
#APP
// 516 "./drivers/misc/rv1126b-secure-otp.c" 1
	dmb sy
// 0 "" 2
#NO_APP
	ldr	x0, [x28]
	mov	w1, 37
	str	w1, [x0, 4108]
.LVL327:
.LBE283:
.LBB284:
	.loc 1 517 0
#APP
// 517 "./drivers/misc/rv1126b-secure-otp.c" 1
	dmb sy
// 0 "" 2
#NO_APP
	ldr	x0, [x28]
	str	wzr, [x0, 4112]
.LVL328:
.LBE284:
.LBB285:
	.loc 1 518 0
#APP
// 518 "./drivers/misc/rv1126b-secure-otp.c" 1
	dmb sy
// 0 "" 2
#NO_APP
	ldr	x0, [x28]
	str	wzr, [x0, 4116]
.LVL329:
.LBE285:
.LBB286:
	.loc 1 519 0
#APP
// 519 "./drivers/misc/rv1126b-secure-otp.c" 1
	dmb sy
// 0 "" 2
#NO_APP
	ldr	x0, [x28]
	str	wzr, [x0, 4120]
.LVL330:
.LBE286:
.LBB287:
	.loc 1 520 0
#APP
// 520 "./drivers/misc/rv1126b-secure-otp.c" 1
	dmb sy
// 0 "" 2
#NO_APP
	ldr	x0, [x28]
	mov	w1, 31
	str	w1, [x0, 4124]
.LVL331:
.LBE287:
.LBB288:
	.loc 1 521 0
#APP
// 521 "./drivers/misc/rv1126b-secure-otp.c" 1
	dmb sy
// 0 "" 2
#NO_APP
	ldr	x0, [x28]
	mov	w1, 11
	str	w1, [x0, 4128]
.LVL332:
.LBE288:
.LBB289:
	.loc 1 522 0
#APP
// 522 "./drivers/misc/rv1126b-secure-otp.c" 1
	dmb sy
// 0 "" 2
#NO_APP
	ldr	x0, [x28]
	mov	w1, 8
	str	w1, [x0, 4132]
.LVL333:
.LBE289:
.LBB290:
	.loc 1 523 0
#APP
// 523 "./drivers/misc/rv1126b-secure-otp.c" 1
	dmb sy
// 0 "" 2
#NO_APP
	ldr	x0, [x28]
	str	wzr, [x0, 4136]
.LVL334:
.LBE290:
.LBB291:
	.loc 1 524 0
#APP
// 524 "./drivers/misc/rv1126b-secure-otp.c" 1
	dmb sy
// 0 "" 2
#NO_APP
	ldr	x0, [x28]
	str	wzr, [x0, 4140]
.LVL335:
.LBE291:
.LBB292:
	.loc 1 525 0
#APP
// 525 "./drivers/misc/rv1126b-secure-otp.c" 1
	dmb sy
// 0 "" 2
#NO_APP
	ldr	x0, [x28]
	str	wzr, [x0, 4144]
.LBE292:
.LBB293:
	.loc 1 526 0
	and	w0, w21, 255
#APP
// 526 "./drivers/misc/rv1126b-secure-otp.c" 1
	dmb sy
// 0 "" 2
#NO_APP
	ldr	x1, [x28]
.LBE293:
.LBB294:
	.loc 1 527 0
	ubfx	x22, x22, 9, 8
.LVL336:
.LBE294:
.LBB295:
	.loc 1 526 0
	str	w0, [x1, 4148]
.LBE295:
.LBB296:
	.loc 1 527 0
#APP
// 527 "./drivers/misc/rv1126b-secure-otp.c" 1
	dmb sy
// 0 "" 2
#NO_APP
	ldr	x0, [x28]
	str	w22, [x0, 4152]
.LVL337:
.LBE296:
.LBB297:
	.loc 1 528 0
#APP
// 528 "./drivers/misc/rv1126b-secure-otp.c" 1
	dmb sy
// 0 "" 2
#NO_APP
	ldr	x0, [x28]
	mov	w23, 65537
.LBE297:
	.loc 1 529 0
	mov	w1, 2
.LBB298:
	.loc 1 528 0
	str	w23, [x0, 32]
.LBE298:
	.loc 1 529 0
	mov	x0, x28
	bl	rockchip_secure_otp_wait_status.isra.2
.LVL338:
	mov	w27, w0
.LVL339:
	.loc 1 530 0
	ldp	w3, w2, [x29, 100]
	tbz	w0, #31, .L97
	.loc 1 531 0
	adrp	x0, .LC6
.LVL340:
	mov	x1, x19
	add	x0, x0, :lo12:.LC6
.LVL341:
.L125:
	.loc 1 620 0
	bl	printf
.LVL342:
.L98:
.LBB299:
	.loc 1 625 0
#APP
// 625 "./drivers/misc/rv1126b-secure-otp.c" 1
	dmb sy
// 0 "" 2
#NO_APP
	ldr	x0, [x28]
	mov	w1, -65533
.LBE299:
	.loc 1 626 0
	ldr	x2, [x28, 16]
	mov	w3, w21
.LBB300:
	.loc 1 625 0
	str	w1, [x0, 772]
.LBE300:
	.loc 1 626 0
	ldr	x0, [x29, 120]
	ldr	x1, [x28, 24]
	ldr	x6, [x0, 24]
	ldr	x0, [x28, 8]
	blr	x6
.LVL343:
.LBE352:
.LBE365:
	.loc 1 674 0
	cbz	w27, .L96
.LVL344:
.L94:
	.loc 1 675 0
	adrp	x0, .LC22
	add	x0, x0, :lo12:.LC22
	b	.L126
.LVL345:
.L97:
.LBB366:
.LBB353:
.LBB301:
	.loc 1 535 0
#APP
// 535 "./drivers/misc/rv1126b-secure-otp.c" 1
	dmb sy
// 0 "" 2
#NO_APP
	ldr	x0, [x28]
.LVL346:
	mov	w1, 14848
	movk	w1, 0xff00, lsl 16
	str	w1, [x0, 32]
.LVL347:
.LBE301:
.LBB302:
	.loc 1 536 0
#APP
// 536 "./drivers/misc/rv1126b-secure-otp.c" 1
	dmb sy
// 0 "" 2
#NO_APP
	ldr	x0, [x28]
	str	w3, [x0, 4096]
.LVL348:
.LBE302:
.LBB303:
	.loc 1 537 0
#APP
// 537 "./drivers/misc/rv1126b-secure-otp.c" 1
	dmb sy
// 0 "" 2
#NO_APP
	ldr	x0, [x28]
	mov	w1, 1
	str	w1, [x0, 4100]
.LVL349:
.LBE303:
.LBB304:
	.loc 1 538 0
#APP
// 538 "./drivers/misc/rv1126b-secure-otp.c" 1
	dmb sy
// 0 "" 2
#NO_APP
	ldr	x0, [x28]
	str	w2, [x0, 4104]
.LVL350:
.LBE304:
.LBB305:
	.loc 1 539 0
#APP
// 539 "./drivers/misc/rv1126b-secure-otp.c" 1
	dmb sy
// 0 "" 2
#NO_APP
	ldr	x0, [x28]
	mov	w1, 21
	str	w1, [x0, 4108]
.LVL351:
.LBE305:
.LBB306:
	.loc 1 540 0
#APP
// 540 "./drivers/misc/rv1126b-secure-otp.c" 1
	dmb sy
// 0 "" 2
#NO_APP
	ldr	x0, [x28]
	mov	w1, 220
	str	w1, [x0, 4112]
.LVL352:
.LBE306:
.LBB307:
	.loc 1 541 0
#APP
// 541 "./drivers/misc/rv1126b-secure-otp.c" 1
	dmb sy
// 0 "" 2
#NO_APP
	ldr	x0, [x28]
	mov	w1, 146
	str	w1, [x0, 4116]
.LVL353:
.LBE307:
.LBB308:
	.loc 1 542 0
#APP
// 542 "./drivers/misc/rv1126b-secure-otp.c" 1
	dmb sy
// 0 "" 2
#NO_APP
	ldr	x0, [x28]
	mov	w1, 121
	str	w1, [x0, 4120]
.LVL354:
.LBE308:
.LBB309:
	.loc 1 543 0
#APP
// 543 "./drivers/misc/rv1126b-secure-otp.c" 1
	dmb sy
// 0 "" 2
#NO_APP
	ldr	x0, [x28]
	mov	w1, 129
	str	w1, [x0, 4124]
.LVL355:
.LBE309:
.LBB310:
	.loc 1 544 0
#APP
// 544 "./drivers/misc/rv1126b-secure-otp.c" 1
	dmb sy
// 0 "" 2
#NO_APP
	ldr	x0, [x28]
	mov	w1, 126
	str	w1, [x0, 4128]
.LVL356:
.LBE310:
.LBB311:
	.loc 1 545 0
#APP
// 545 "./drivers/misc/rv1126b-secure-otp.c" 1
	dmb sy
// 0 "" 2
#NO_APP
	ldr	x0, [x28]
	mov	w1, 33
	str	w1, [x0, 4132]
.LVL357:
.LBE311:
.LBB312:
	.loc 1 546 0
#APP
// 546 "./drivers/misc/rv1126b-secure-otp.c" 1
	dmb sy
// 0 "" 2
#NO_APP
	ldr	x0, [x28]
	mov	w1, 17
	str	w1, [x0, 4136]
.LVL358:
.LBE312:
.LBB313:
	.loc 1 547 0
#APP
// 547 "./drivers/misc/rv1126b-secure-otp.c" 1
	dmb sy
// 0 "" 2
#NO_APP
	ldr	x0, [x28]
	mov	w1, 157
	str	w1, [x0, 4140]
.LVL359:
.LBE313:
.LBB314:
	.loc 1 548 0
#APP
// 548 "./drivers/misc/rv1126b-secure-otp.c" 1
	dmb sy
// 0 "" 2
#NO_APP
	ldr	x0, [x28]
	mov	w22, 2
.LVL360:
	str	w22, [x0, 4144]
.LVL361:
.LBE314:
.LBB315:
	.loc 1 549 0
#APP
// 549 "./drivers/misc/rv1126b-secure-otp.c" 1
	dmb sy
// 0 "" 2
#NO_APP
	ldr	x0, [x28]
	str	wzr, [x0, 4148]
.LVL362:
.LBE315:
.LBB316:
	.loc 1 550 0
#APP
// 550 "./drivers/misc/rv1126b-secure-otp.c" 1
	dmb sy
// 0 "" 2
#NO_APP
	ldr	x0, [x28]
	str	wzr, [x0, 4152]
.LVL363:
.LBE316:
.LBB317:
	.loc 1 551 0
#APP
// 551 "./drivers/misc/rv1126b-secure-otp.c" 1
	dmb sy
// 0 "" 2
#NO_APP
	ldr	x0, [x28]
.LBE317:
	.loc 1 552 0
	mov	w1, w22
.LBB318:
	.loc 1 551 0
	str	w23, [x0, 32]
.LBE318:
	.loc 1 552 0
	mov	x0, x28
	bl	rockchip_secure_otp_wait_status.isra.2
.LVL364:
	mov	w27, w0
.LVL365:
	.loc 1 553 0
	tbz	w0, #31, .L99
	.loc 1 554 0
	adrp	x0, .LC16
.LVL366:
	mov	x1, x19
	add	x0, x0, :lo12:.LC16
	b	.L125
.LVL367:
.L99:
.LBB319:
	.loc 1 558 0
#APP
// 558 "./drivers/misc/rv1126b-secure-otp.c" 1
	dmb sy
// 0 "" 2
#NO_APP
	ldr	x0, [x28]
.LVL368:
	mov	w1, 512
	movk	w1, 0xff00, lsl 16
	str	w1, [x0, 32]
.LVL369:
.LBE319:
.LBB320:
	.loc 1 559 0
#APP
// 559 "./drivers/misc/rv1126b-secure-otp.c" 1
	dmb sy
// 0 "" 2
#NO_APP
	ldr	x0, [x28]
	mov	w1, -65535
	str	w1, [x0, 36]
.LVL370:
.LBE320:
.LBB321:
	.loc 1 560 0
#APP
// 560 "./drivers/misc/rv1126b-secure-otp.c" 1
	dmb sy
// 0 "" 2
#NO_APP
	ldr	x0, [x28]
	mov	w1, 251
	str	w1, [x0, 4096]
.LVL371:
.LBE321:
.LBB322:
	.loc 1 561 0
#APP
// 561 "./drivers/misc/rv1126b-secure-otp.c" 1
	dmb sy
// 0 "" 2
#NO_APP
	ldr	x0, [x28]
	str	wzr, [x0, 4100]
.LVL372:
.LBE322:
.LBB323:
	.loc 1 562 0
#APP
// 562 "./drivers/misc/rv1126b-secure-otp.c" 1
	dmb sy
// 0 "" 2
#NO_APP
	ldr	x0, [x28]
.LBE323:
	.loc 1 563 0
	mov	w1, w22
.LBB324:
	.loc 1 562 0
	str	w23, [x0, 32]
.LBE324:
	.loc 1 563 0
	mov	x0, x28
	bl	rockchip_secure_otp_wait_status.isra.2
.LVL373:
	mov	w27, w0
.LVL374:
	.loc 1 564 0
	tbz	w0, #31, .L100
	.loc 1 565 0
	adrp	x0, .LC17
.LVL375:
	mov	x1, x19
	add	x0, x0, :lo12:.LC17
	b	.L125
.LVL376:
.L100:
.LBB325:
	.loc 1 569 0
#APP
// 569 "./drivers/misc/rv1126b-secure-otp.c" 1
	dmb sy
// 0 "" 2
#NO_APP
	ldr	x0, [x28]
.LVL377:
	mov	w1, -65534
	str	w1, [x0, 36]
.LVL378:
.LBE325:
.LBB326:
	.loc 1 570 0
#APP
// 570 "./drivers/misc/rv1126b-secure-otp.c" 1
	dmb sy
// 0 "" 2
#NO_APP
	ldr	x0, [x28]
	mov	w1, 192
	str	w1, [x0, 4096]
.LBE326:
.LBB327:
	.loc 1 571 0
	and	w1, w26, 255
.LVL379:
#APP
// 571 "./drivers/misc/rv1126b-secure-otp.c" 1
	dmb sy
// 0 "" 2
#NO_APP
	ldr	x0, [x28]
.LBE327:
.LBB328:
	.loc 1 572 0
	lsr	w26, w26, 8
.LVL380:
.LBE328:
.LBB329:
	.loc 1 571 0
	str	w1, [x0, 4100]
.LBE329:
.LBB330:
	.loc 1 572 0
#APP
// 572 "./drivers/misc/rv1126b-secure-otp.c" 1
	dmb sy
// 0 "" 2
#NO_APP
	ldr	x0, [x28]
	str	w26, [x0, 4104]
.LVL381:
.LBE330:
.LBB331:
	.loc 1 573 0
#APP
// 573 "./drivers/misc/rv1126b-secure-otp.c" 1
	dmb sy
// 0 "" 2
#NO_APP
	ldr	x0, [x28]
.LBE331:
	.loc 1 574 0
	mov	w1, w22
.LVL382:
.LBB332:
	.loc 1 573 0
	str	w23, [x0, 32]
.LBE332:
	.loc 1 574 0
	mov	x0, x28
	bl	rockchip_secure_otp_wait_status.isra.2
.LVL383:
	mov	w27, w0
.LVL384:
	.loc 1 575 0
	tbz	w0, #31, .L101
	.loc 1 576 0
	adrp	x0, .LC18
.LVL385:
	mov	x1, x19
	add	x0, x0, :lo12:.LC18
	b	.L125
.LVL386:
.L101:
.LBB333:
	.loc 1 580 0
#APP
// 580 "./drivers/misc/rv1126b-secure-otp.c" 1
	dmb sy
// 0 "" 2
#NO_APP
	ldr	x0, [x28]
.LVL387:
	mov	w1, 14848
	movk	w1, 0xff00, lsl 16
	str	w1, [x0, 32]
.LVL388:
.LBE333:
.LBB334:
	.loc 1 581 0
#APP
// 581 "./drivers/misc/rv1126b-secure-otp.c" 1
	dmb sy
// 0 "" 2
#NO_APP
	ldr	x0, [x28]
	mov	w1, -65535
	str	w1, [x0, 36]
.LVL389:
.LBE334:
.LBB335:
	.loc 1 582 0
#APP
// 582 "./drivers/misc/rv1126b-secure-otp.c" 1
	dmb sy
// 0 "" 2
#NO_APP
	ldr	x0, [x28]
	mov	w1, 255
	str	w1, [x0, 4096]
.LVL390:
.LBE335:
.LBB336:
	.loc 1 583 0
#APP
// 583 "./drivers/misc/rv1126b-secure-otp.c" 1
	dmb sy
// 0 "" 2
#NO_APP
	ldr	x0, [x28]
	mov	w1, 10
	str	w1, [x0, 4100]
.LVL391:
.LBE336:
.LBB337:
	.loc 1 584 0
#APP
// 584 "./drivers/misc/rv1126b-secure-otp.c" 1
	dmb sy
// 0 "" 2
#NO_APP
	ldr	x0, [x28]
.LBE337:
	.loc 1 585 0
	mov	w1, w22
.LBB338:
	.loc 1 584 0
	str	w23, [x0, 32]
.LBE338:
	.loc 1 585 0
	mov	x0, x28
	bl	rockchip_secure_otp_wait_status.isra.2
.LVL392:
	mov	w27, w0
.LVL393:
	.loc 1 586 0
	tbz	w0, #31, .L102
	.loc 1 587 0
	adrp	x0, .LC19
.LVL394:
	mov	x1, x19
	add	x0, x0, :lo12:.LC19
	b	.L125
.LVL395:
.L102:
.LBB339:
	.loc 1 591 0
#APP
// 591 "./drivers/misc/rv1126b-secure-otp.c" 1
	dmb sy
// 0 "" 2
#NO_APP
	ldr	x0, [x28]
.LVL396:
	mov	w1, -65534
	str	w1, [x0, 36]
.LVL397:
.LBE339:
.LBB340:
	.loc 1 592 0
#APP
// 592 "./drivers/misc/rv1126b-secure-otp.c" 1
	dmb sy
// 0 "" 2
#NO_APP
	ldr	x0, [x28]
	mov	w1, 1
	str	w1, [x0, 4096]
.LVL398:
.LBE340:
.LBB341:
	.loc 1 593 0
#APP
// 593 "./drivers/misc/rv1126b-secure-otp.c" 1
	dmb sy
// 0 "" 2
#NO_APP
	ldr	x0, [x28]
	mov	w26, 191
.LVL399:
	str	w26, [x0, 4100]
.LVL400:
.LBE341:
.LBB342:
	.loc 1 594 0
#APP
// 594 "./drivers/misc/rv1126b-secure-otp.c" 1
	dmb sy
// 0 "" 2
#NO_APP
	ldr	x0, [x28]
	str	wzr, [x0, 4104]
.LVL401:
.LBE342:
.LBB343:
	.loc 1 595 0
#APP
// 595 "./drivers/misc/rv1126b-secure-otp.c" 1
	dmb sy
// 0 "" 2
#NO_APP
	ldr	x0, [x28]
.LBE343:
	.loc 1 596 0
	mov	w1, w22
.LBB344:
	.loc 1 595 0
	str	w23, [x0, 32]
.LBE344:
	.loc 1 596 0
	mov	x0, x28
	bl	rockchip_secure_otp_wait_status.isra.2
.LVL402:
	mov	w27, w0
.LVL403:
	.loc 1 597 0
	tbz	w0, #31, .L103
	.loc 1 598 0
	adrp	x0, .LC20
.LVL404:
	mov	x1, x19
	add	x0, x0, :lo12:.LC20
	b	.L125
.LVL405:
.L103:
	.loc 1 602 0
	mov	x0, x28
.LVL406:
	bl	rockchip_secure_otp_check_flag.isra.0
.LVL407:
	mov	w27, w0
.LVL408:
	.loc 1 603 0
	tbz	w0, #31, .L104
	.loc 1 604 0
	adrp	x0, .LC7
.LVL409:
	mov	x1, x19
	add	x0, x0, :lo12:.LC7
	b	.L125
.LVL410:
.L104:
.LBB345:
	.loc 1 608 0
#APP
// 608 "./drivers/misc/rv1126b-secure-otp.c" 1
	dmb sy
// 0 "" 2
#NO_APP
	ldr	x0, [x28]
.LVL411:
	mov	w1, -65535
	str	w1, [x0, 36]
.LVL412:
.LBE345:
.LBB346:
	.loc 1 609 0
#APP
// 609 "./drivers/misc/rv1126b-secure-otp.c" 1
	dmb sy
// 0 "" 2
#NO_APP
	ldr	x0, [x28]
	str	w22, [x0, 4096]
.LVL413:
.LBE346:
.LBB347:
	.loc 1 610 0
#APP
// 610 "./drivers/misc/rv1126b-secure-otp.c" 1
	dmb sy
// 0 "" 2
#NO_APP
	ldr	x0, [x28]
	str	w26, [x0, 4100]
.LVL414:
.LBE347:
.LBB348:
	.loc 1 611 0
#APP
// 611 "./drivers/misc/rv1126b-secure-otp.c" 1
	dmb sy
// 0 "" 2
#NO_APP
	ldr	x0, [x28]
.LBE348:
	.loc 1 612 0
	mov	w1, w22
.LBB349:
	.loc 1 611 0
	str	w23, [x0, 32]
.LBE349:
	.loc 1 612 0
	mov	x0, x28
	bl	rockchip_secure_otp_wait_status.isra.2
.LVL415:
	mov	w27, w0
.LVL416:
	.loc 1 613 0
	tbz	w0, #31, .L105
	.loc 1 614 0
	adrp	x0, .LC21
.LVL417:
	mov	x1, x19
	add	x0, x0, :lo12:.LC21
	b	.L125
.LVL418:
.L105:
	.loc 1 618 0
	mov	x0, x28
.LVL419:
	bl	rockchip_secure_otp_wait_flag.isra.1
.LVL420:
	mov	w27, w0
.LVL421:
	.loc 1 619 0
	tbz	w0, #31, .L98
	.loc 1 620 0
	adrp	x0, .LC8
.LVL422:
	mov	x1, x19
	add	x0, x0, :lo12:.LC8
	b	.L125
.LVL423:
.L96:
	add	x24, x24, 1
.LVL424:
	b	.L88
.LVL425:
.L89:
.LBE353:
.LBE366:
.LBB367:
.LBB361:
	.loc 1 469 0
	mov	w27, -1
	b	.L108
.LBE361:
.LBE367:
	.cfi_endproc
.LFE282:
	.size	rv1126b_secure_otp_write, .-rv1126b_secure_otp_write
	.global	_u_boot_list_2_driver_2_rockchip_secure_otp
	.section	.rodata.__func__.7612,"a",@progbits
	.align	3
	.set	.LANCHOR0,. + 0
	.type	__func__.7612, %object
	.size	__func__.7612, 32
__func__.7612:
	.string	"rockchip_secure_otp_wait_status"
	.section	.rodata.__func__.7655,"a",@progbits
	.align	3
	.set	.LANCHOR2,. + 0
	.type	__func__.7655, %object
	.size	__func__.7655, 31
__func__.7655:
	.string	"rockchip_secure_otp_ecc_enable"
	.section	.rodata.__func__.7674,"a",@progbits
	.align	3
	.set	.LANCHOR4,. + 0
	.type	__func__.7674, %object
	.size	__func__.7674, 24
__func__.7674:
	.string	"rv1126b_secure_otp_read"
	.section	.rodata.__func__.7709,"a",@progbits
	.align	3
	.set	.LANCHOR1,. + 0
	.type	__func__.7709, %object
	.size	__func__.7709, 39
__func__.7709:
	.string	"rv1126b_secure_otp_write_2_bytes_noecc"
	.section	.rodata.__func__.7930,"a",@progbits
	.align	3
	.set	.LANCHOR5,. + 0
	.type	__func__.7930, %object
	.size	__func__.7930, 33
__func__.7930:
	.string	"rv1126b_secure_otp_write_2_bytes"
	.section	.rodata.__func__.8070,"a",@progbits
	.align	3
	.set	.LANCHOR3,. + 0
	.type	__func__.8070, %object
	.size	__func__.8070, 32
__func__.8070:
	.string	"rockchip_secure_otp_keylad_init"
	.section	.rodata.rockchip_otp_ids,"a",@progbits
	.align	3
	.type	rockchip_otp_ids, %object
	.size	rockchip_otp_ids, 32
rockchip_otp_ids:
	.xword	.LC24
	.xword	rv1126b_data
	.zero	16
	.section	.rodata.rockchip_secure_otp_ecc_enable.str1.1,"aMS",@progbits,1
.LC9:
	.string	"%s timeout during ecc_enable\n"
	.section	.rodata.rockchip_secure_otp_ofdata_to_platdata.str1.1,"aMS",@progbits,1
.LC0:
	.string	"secure_conf"
.LC1:
	.string	"mask_addr"
.LC2:
	.string	"cru_rst_addr"
.LC3:
	.string	"key_reader_addr"
	.section	.rodata.rockchip_secure_otp_ops,"a",@progbits
	.align	3
	.type	rockchip_secure_otp_ops, %object
	.size	rockchip_secure_otp_ops, 32
rockchip_secure_otp_ops:
	.xword	secure_otp_read
	.xword	secure_otp_write
	.xword	secure_otp_ioctl
	.zero	8
	.section	.rodata.rockchip_secure_otp_wait_status.isra.2.str1.1,"aMS",@progbits,1
.LC4:
	.string	"%s: wait init status timeout\n"
	.section	.rodata.rv1126b_data,"a",@progbits
	.align	3
	.type	rv1126b_data, %object
	.size	rv1126b_data, 32
rv1126b_data:
	.xword	rv1126b_secure_otp_read
	.xword	rv1126b_secure_otp_write
	.xword	rv1126b_spl_rockchip_otp_start
	.xword	rv1126b_spl_rockchip_otp_stop
	.section	.rodata.rv1126b_secure_otp_read.str1.1,"aMS",@progbits,1
.LC11:
	.string	"do not access non secure area, half word offset = %d\n"
.LC12:
	.string	"Please input correct addr, offset(bytes) is 0x%x\n"
.LC13:
	.string	"%s timeout during read setup\n"
	.section	.rodata.rv1126b_secure_otp_write.str1.1,"aMS",@progbits,1
.LC14:
	.string	"The zone is written.\n"
.LC15:
	.string	"rv1126b_secure_otp_write_byte_noecc error\n"
.LC16:
	.string	"%s timeout during write setup 2\n"
.LC17:
	.string	"%s timeout during write setup 3\n"
.LC18:
	.string	"%s timeout during write setup 4\n"
.LC19:
	.string	"%s timeout during write setup 5\n"
.LC20:
	.string	"%s timeout during write setup 6\n"
.LC21:
	.string	"%s timeout during write setup 8\n"
.LC22:
	.string	"rv1126b_secure_otp_write_2_bytes error\n"
	.section	.rodata.rv1126b_secure_otp_write_2_bytes_noecc.str1.1,"aMS",@progbits,1
.LC5:
	.string	"Please input correct addr, offset is 0x%x\n"
.LC6:
	.string	"%s timeout during write setup 1\n"
.LC7:
	.string	"%s timeout during write setup 7\n"
.LC8:
	.string	"%s timeout during write setup 9\n"
	.section	.rodata.secure_otp_ioctl.str1.1,"aMS",@progbits,1
.LC10:
	.string	"%s timeout during keylad init\n"
	.section	.rodata.str1.1,"aMS",@progbits,1
.LC23:
	.string	"rockchip_secure_otp"
.LC24:
	.string	"rockchip,rv1126b-secure-otp"
	.section	.u_boot_list_2_driver_2_rockchip_secure_otp,"aw",@progbits
	.align	2
	.type	_u_boot_list_2_driver_2_rockchip_secure_otp, %object
	.size	_u_boot_list_2_driver_2_rockchip_secure_otp, 120
_u_boot_list_2_driver_2_rockchip_secure_otp:
	.8byte	.LC23
	.word	36
	.zero	4
	.8byte	rockchip_otp_ids
	.zero	32
	.8byte	rockchip_secure_otp_ofdata_to_platdata
	.zero	28
	.word	40
	.zero	8
	.8byte	rockchip_secure_otp_ops
	.zero	8
	.text
.Letext0:
	.file 2 "include/common.h"
	.file 3 "./arch/arm/include/asm/types.h"
	.file 4 "include/linux/types.h"
	.file 5 "include/errno.h"
	.file 6 "include/linux/string.h"
	.file 7 "include/efi.h"
	.file 8 "include/dm/device.h"
	.file 9 "include/ide.h"
	.file 10 "include/linux/list.h"
	.file 11 "include/part.h"
	.file 12 "include/flash.h"
	.file 13 "include/lmb.h"
	.file 14 "include/asm-generic/u-boot.h"
	.file 15 "./arch/arm/include/asm/u-boot-arm.h"
	.file 16 "include/linux/libfdt_env.h"
	.file 17 "include/linux/../../scripts/dtc/libfdt/fdt.h"
	.file 18 "include/linux/libfdt.h"
	.file 19 "include/image.h"
	.file 20 "include/u-boot/sha1.h"
	.file 21 "include/u-boot/sha256.h"
	.file 22 "./arch/arm/include/asm/global_data.h"
	.file 23 "include/asm-generic/global_data.h"
	.file 24 "include/dm/of.h"
	.file 25 "include/net.h"
	.file 26 "include/dm/uclass-id.h"
	.file 27 "include/dm/ofnode.h"
	.file 28 "include/malloc.h"
	.file 29 "include/linux/compat.h"
	.file 30 "include/dm/uclass.h"
	.file 31 "include/asm-generic/ioctl.h"
	.file 32 "include/misc.h"
	.file 33 "include/rockchip-otp.h"
	.file 34 "include/dm/read.h"
	.file 35 "include/linux/delay.h"
	.file 36 "include/stdio.h"
	.file 37 "include/log.h"
	.section	.note.GNU-stack,"",@progbits
